
_picviewer:     file format elf32-i386


Disassembly of section .text:

00000000 <compressPic>:

PICNODE pic;
int isRun = 1;

// 压缩图片
void compressPic(int width, int height) {
       0:	55                   	push   %ebp
       1:	89 e5                	mov    %esp,%ebp
       3:	81 ec 98 00 00 00    	sub    $0x98,%esp
    int x0, y0, x1, x2, y1, y2;
    float fx1, fx2, fy1, fy2;
    int x, y, index;
    RGBQUAD* data;

    w0 = pic.width;
       9:	a1 94 ff 00 00       	mov    0xff94,%eax
       e:	89 45 e8             	mov    %eax,-0x18(%ebp)
    h0 = pic.height;
      11:	a1 98 ff 00 00       	mov    0xff98,%eax
      16:	89 45 e4             	mov    %eax,-0x1c(%ebp)
    w1 = width;
      19:	8b 45 08             	mov    0x8(%ebp),%eax
      1c:	89 45 e0             	mov    %eax,-0x20(%ebp)
    h1 = height;
      1f:	8b 45 0c             	mov    0xc(%ebp),%eax
      22:	89 45 dc             	mov    %eax,-0x24(%ebp)

    fw = w0 * 1.0 / w1;
      25:	db 45 e8             	fildl  -0x18(%ebp)
      28:	db 45 e0             	fildl  -0x20(%ebp)
      2b:	de f9                	fdivrp %st,%st(1)
      2d:	d9 5d d8             	fstps  -0x28(%ebp)
    fh = h0 * 1.0 / h1;
      30:	db 45 e4             	fildl  -0x1c(%ebp)
      33:	db 45 dc             	fildl  -0x24(%ebp)
      36:	de f9                	fdivrp %st,%st(1)
      38:	d9 5d d4             	fstps  -0x2c(%ebp)

    index = 0;
      3b:	c7 45 ec 00 00 00 00 	movl   $0x0,-0x14(%ebp)
    data = (RGBQUAD*)malloc(w1*h1*sizeof(RGBQUAD));
      42:	8b 45 e0             	mov    -0x20(%ebp),%eax
      45:	0f af 45 dc          	imul   -0x24(%ebp),%eax
      49:	c1 e0 02             	shl    $0x2,%eax
      4c:	89 04 24             	mov    %eax,(%esp)
      4f:	e8 73 2e 00 00       	call   2ec7 <malloc>
      54:	89 45 d0             	mov    %eax,-0x30(%ebp)
    memset(data, 0, (uint)w1*h1*sizeof(RGBQUAD));
      57:	8b 55 e0             	mov    -0x20(%ebp),%edx
      5a:	8b 45 dc             	mov    -0x24(%ebp),%eax
      5d:	0f af c2             	imul   %edx,%eax
      60:	c1 e0 02             	shl    $0x2,%eax
      63:	89 44 24 08          	mov    %eax,0x8(%esp)
      67:	c7 44 24 04 00 00 00 	movl   $0x0,0x4(%esp)
      6e:	00 
      6f:	8b 45 d0             	mov    -0x30(%ebp),%eax
      72:	89 04 24             	mov    %eax,(%esp)
      75:	e8 cc 27 00 00       	call   2846 <memset>
    for (y = 0; y < h1; ++y) {
      7a:	c7 45 f0 00 00 00 00 	movl   $0x0,-0x10(%ebp)
      81:	e9 07 03 00 00       	jmp    38d <compressPic+0x38d>
        y0 = y*fh;
      86:	db 45 f0             	fildl  -0x10(%ebp)
      89:	d8 4d d4             	fmuls  -0x2c(%ebp)
      8c:	d9 bd 7e ff ff ff    	fnstcw -0x82(%ebp)
      92:	0f b7 85 7e ff ff ff 	movzwl -0x82(%ebp),%eax
      99:	b4 0c                	mov    $0xc,%ah
      9b:	66 89 85 7c ff ff ff 	mov    %ax,-0x84(%ebp)
      a2:	d9 ad 7c ff ff ff    	fldcw  -0x84(%ebp)
      a8:	db 5d cc             	fistpl -0x34(%ebp)
      ab:	d9 ad 7e ff ff ff    	fldcw  -0x82(%ebp)
        y1 = (int)y0;
      b1:	8b 45 cc             	mov    -0x34(%ebp),%eax
      b4:	89 45 c8             	mov    %eax,-0x38(%ebp)
        y2 = (y1 == h0-1) ? y1 : y1 + 1;
      b7:	8b 45 e4             	mov    -0x1c(%ebp),%eax
      ba:	83 e8 01             	sub    $0x1,%eax
      bd:	3b 45 c8             	cmp    -0x38(%ebp),%eax
      c0:	74 08                	je     ca <compressPic+0xca>
      c2:	8b 45 c8             	mov    -0x38(%ebp),%eax
      c5:	83 c0 01             	add    $0x1,%eax
      c8:	eb 03                	jmp    cd <compressPic+0xcd>
      ca:	8b 45 c8             	mov    -0x38(%ebp),%eax
      cd:	89 45 c4             	mov    %eax,-0x3c(%ebp)

        fy1 = y1-y0;
      d0:	8b 45 cc             	mov    -0x34(%ebp),%eax
      d3:	8b 55 c8             	mov    -0x38(%ebp),%edx
      d6:	29 c2                	sub    %eax,%edx
      d8:	89 d0                	mov    %edx,%eax
      da:	89 45 80             	mov    %eax,-0x80(%ebp)
      dd:	db 45 80             	fildl  -0x80(%ebp)
      e0:	d9 5d c0             	fstps  -0x40(%ebp)
        fy2 = 1.0f-fy1;
      e3:	d9 e8                	fld1   
      e5:	d8 65 c0             	fsubs  -0x40(%ebp)
      e8:	d9 5d bc             	fstps  -0x44(%ebp)

        for (x = 0; x < w1; ++x) {
      eb:	c7 45 f4 00 00 00 00 	movl   $0x0,-0xc(%ebp)
      f2:	e9 86 02 00 00       	jmp    37d <compressPic+0x37d>
            x0 = x*fw;
      f7:	db 45 f4             	fildl  -0xc(%ebp)
      fa:	d8 4d d8             	fmuls  -0x28(%ebp)
      fd:	d9 ad 7c ff ff ff    	fldcw  -0x84(%ebp)
     103:	db 5d b8             	fistpl -0x48(%ebp)
     106:	d9 ad 7e ff ff ff    	fldcw  -0x82(%ebp)
            x1 = (int)x0;
     10c:	8b 45 b8             	mov    -0x48(%ebp),%eax
     10f:	89 45 b4             	mov    %eax,-0x4c(%ebp)
            x2 = (x1 == w0-1) ? x1 : x1 + 1;
     112:	8b 45 e8             	mov    -0x18(%ebp),%eax
     115:	83 e8 01             	sub    $0x1,%eax
     118:	3b 45 b4             	cmp    -0x4c(%ebp),%eax
     11b:	74 08                	je     125 <compressPic+0x125>
     11d:	8b 45 b4             	mov    -0x4c(%ebp),%eax
     120:	83 c0 01             	add    $0x1,%eax
     123:	eb 03                	jmp    128 <compressPic+0x128>
     125:	8b 45 b4             	mov    -0x4c(%ebp),%eax
     128:	89 45 b0             	mov    %eax,-0x50(%ebp)

            fx1 = y1-y0;
     12b:	8b 45 cc             	mov    -0x34(%ebp),%eax
     12e:	8b 55 c8             	mov    -0x38(%ebp),%edx
     131:	29 c2                	sub    %eax,%edx
     133:	89 d0                	mov    %edx,%eax
     135:	89 45 80             	mov    %eax,-0x80(%ebp)
     138:	db 45 80             	fildl  -0x80(%ebp)
     13b:	d9 5d ac             	fstps  -0x54(%ebp)
            fx2 = 1.0f-fx1;
     13e:	d9 e8                	fld1   
     140:	d8 65 ac             	fsubs  -0x54(%ebp)
     143:	d9 5d a8             	fstps  -0x58(%ebp)

            float s1 = fx1*fy1;
     146:	d9 45 ac             	flds   -0x54(%ebp)
     149:	d8 4d c0             	fmuls  -0x40(%ebp)
     14c:	d9 5d a4             	fstps  -0x5c(%ebp)
            float s2 = fx2*fy1;
     14f:	d9 45 a8             	flds   -0x58(%ebp)
     152:	d8 4d c0             	fmuls  -0x40(%ebp)
     155:	d9 5d a0             	fstps  -0x60(%ebp)
            float s3 = fx2*fy2;
     158:	d9 45 a8             	flds   -0x58(%ebp)
     15b:	d8 4d bc             	fmuls  -0x44(%ebp)
     15e:	d9 5d 9c             	fstps  -0x64(%ebp)
            float s4 = fx1*fy2;
     161:	d9 45 ac             	flds   -0x54(%ebp)
     164:	d8 4d bc             	fmuls  -0x44(%ebp)
     167:	d9 5d 98             	fstps  -0x68(%ebp)

            RGBQUAD p1, p2, p3, p4;
            p1 = pic.data[x1+y1*w0];
     16a:	8b 15 90 ff 00 00    	mov    0xff90,%edx
     170:	8b 45 c8             	mov    -0x38(%ebp),%eax
     173:	0f af 45 e8          	imul   -0x18(%ebp),%eax
     177:	89 c1                	mov    %eax,%ecx
     179:	8b 45 b4             	mov    -0x4c(%ebp),%eax
     17c:	01 c8                	add    %ecx,%eax
     17e:	c1 e0 02             	shl    $0x2,%eax
     181:	01 d0                	add    %edx,%eax
     183:	8b 00                	mov    (%eax),%eax
     185:	89 45 94             	mov    %eax,-0x6c(%ebp)
            p2 = pic.data[x2+y1*w0];
     188:	8b 15 90 ff 00 00    	mov    0xff90,%edx
     18e:	8b 45 c8             	mov    -0x38(%ebp),%eax
     191:	0f af 45 e8          	imul   -0x18(%ebp),%eax
     195:	89 c1                	mov    %eax,%ecx
     197:	8b 45 b0             	mov    -0x50(%ebp),%eax
     19a:	01 c8                	add    %ecx,%eax
     19c:	c1 e0 02             	shl    $0x2,%eax
     19f:	01 d0                	add    %edx,%eax
     1a1:	8b 00                	mov    (%eax),%eax
     1a3:	89 45 90             	mov    %eax,-0x70(%ebp)
            p3 = pic.data[x1+y2*w0];
     1a6:	8b 15 90 ff 00 00    	mov    0xff90,%edx
     1ac:	8b 45 c4             	mov    -0x3c(%ebp),%eax
     1af:	0f af 45 e8          	imul   -0x18(%ebp),%eax
     1b3:	89 c1                	mov    %eax,%ecx
     1b5:	8b 45 b4             	mov    -0x4c(%ebp),%eax
     1b8:	01 c8                	add    %ecx,%eax
     1ba:	c1 e0 02             	shl    $0x2,%eax
     1bd:	01 d0                	add    %edx,%eax
     1bf:	8b 00                	mov    (%eax),%eax
     1c1:	89 45 8c             	mov    %eax,-0x74(%ebp)
            p4 = pic.data[x2+y2*w0];
     1c4:	8b 15 90 ff 00 00    	mov    0xff90,%edx
     1ca:	8b 45 c4             	mov    -0x3c(%ebp),%eax
     1cd:	0f af 45 e8          	imul   -0x18(%ebp),%eax
     1d1:	89 c1                	mov    %eax,%ecx
     1d3:	8b 45 b0             	mov    -0x50(%ebp),%eax
     1d6:	01 c8                	add    %ecx,%eax
     1d8:	c1 e0 02             	shl    $0x2,%eax
     1db:	01 d0                	add    %edx,%eax
     1dd:	8b 00                	mov    (%eax),%eax
     1df:	89 45 88             	mov    %eax,-0x78(%ebp)

            data[index].rgbRed = (BYTE)(p1.rgbRed*s3 + p2.rgbRed*s4 + p3.rgbRed*s2 + p4.rgbRed*s1);
     1e2:	8b 45 ec             	mov    -0x14(%ebp),%eax
     1e5:	8d 14 85 00 00 00 00 	lea    0x0(,%eax,4),%edx
     1ec:	8b 45 d0             	mov    -0x30(%ebp),%eax
     1ef:	01 c2                	add    %eax,%edx
     1f1:	0f b6 45 96          	movzbl -0x6a(%ebp),%eax
     1f5:	0f b6 c0             	movzbl %al,%eax
     1f8:	89 45 80             	mov    %eax,-0x80(%ebp)
     1fb:	db 45 80             	fildl  -0x80(%ebp)
     1fe:	d8 4d 9c             	fmuls  -0x64(%ebp)
     201:	0f b6 45 92          	movzbl -0x6e(%ebp),%eax
     205:	0f b6 c0             	movzbl %al,%eax
     208:	89 45 80             	mov    %eax,-0x80(%ebp)
     20b:	db 45 80             	fildl  -0x80(%ebp)
     20e:	d8 4d 98             	fmuls  -0x68(%ebp)
     211:	de c1                	faddp  %st,%st(1)
     213:	0f b6 45 8e          	movzbl -0x72(%ebp),%eax
     217:	0f b6 c0             	movzbl %al,%eax
     21a:	89 45 80             	mov    %eax,-0x80(%ebp)
     21d:	db 45 80             	fildl  -0x80(%ebp)
     220:	d8 4d a0             	fmuls  -0x60(%ebp)
     223:	de c1                	faddp  %st,%st(1)
     225:	0f b6 45 8a          	movzbl -0x76(%ebp),%eax
     229:	0f b6 c0             	movzbl %al,%eax
     22c:	89 45 80             	mov    %eax,-0x80(%ebp)
     22f:	db 45 80             	fildl  -0x80(%ebp)
     232:	d8 4d a4             	fmuls  -0x5c(%ebp)
     235:	de c1                	faddp  %st,%st(1)
     237:	d9 ad 7c ff ff ff    	fldcw  -0x84(%ebp)
     23d:	df 9d 7a ff ff ff    	fistp  -0x86(%ebp)
     243:	d9 ad 7e ff ff ff    	fldcw  -0x82(%ebp)
     249:	0f b7 85 7a ff ff ff 	movzwl -0x86(%ebp),%eax
     250:	88 42 02             	mov    %al,0x2(%edx)
            data[index].rgbGreen = (BYTE)(p1.rgbGreen*s3 + p2.rgbGreen*s4 + p3.rgbGreen*s2 + p4.rgbGreen*s1);
     253:	8b 45 ec             	mov    -0x14(%ebp),%eax
     256:	8d 14 85 00 00 00 00 	lea    0x0(,%eax,4),%edx
     25d:	8b 45 d0             	mov    -0x30(%ebp),%eax
     260:	01 c2                	add    %eax,%edx
     262:	0f b6 45 95          	movzbl -0x6b(%ebp),%eax
     266:	0f b6 c0             	movzbl %al,%eax
     269:	89 45 80             	mov    %eax,-0x80(%ebp)
     26c:	db 45 80             	fildl  -0x80(%ebp)
     26f:	d8 4d 9c             	fmuls  -0x64(%ebp)
     272:	0f b6 45 91          	movzbl -0x6f(%ebp),%eax
     276:	0f b6 c0             	movzbl %al,%eax
     279:	89 45 80             	mov    %eax,-0x80(%ebp)
     27c:	db 45 80             	fildl  -0x80(%ebp)
     27f:	d8 4d 98             	fmuls  -0x68(%ebp)
     282:	de c1                	faddp  %st,%st(1)
     284:	0f b6 45 8d          	movzbl -0x73(%ebp),%eax
     288:	0f b6 c0             	movzbl %al,%eax
     28b:	89 45 80             	mov    %eax,-0x80(%ebp)
     28e:	db 45 80             	fildl  -0x80(%ebp)
     291:	d8 4d a0             	fmuls  -0x60(%ebp)
     294:	de c1                	faddp  %st,%st(1)
     296:	0f b6 45 89          	movzbl -0x77(%ebp),%eax
     29a:	0f b6 c0             	movzbl %al,%eax
     29d:	89 45 80             	mov    %eax,-0x80(%ebp)
     2a0:	db 45 80             	fildl  -0x80(%ebp)
     2a3:	d8 4d a4             	fmuls  -0x5c(%ebp)
     2a6:	de c1                	faddp  %st,%st(1)
     2a8:	d9 ad 7c ff ff ff    	fldcw  -0x84(%ebp)
     2ae:	df 9d 7a ff ff ff    	fistp  -0x86(%ebp)
     2b4:	d9 ad 7e ff ff ff    	fldcw  -0x82(%ebp)
     2ba:	0f b7 85 7a ff ff ff 	movzwl -0x86(%ebp),%eax
     2c1:	88 42 01             	mov    %al,0x1(%edx)
            data[index].rgbBlue = (BYTE)(p1.rgbBlue*s3 + p2.rgbBlue*s4 + p3.rgbBlue*s2 + p4.rgbBlue*s1);
     2c4:	8b 45 ec             	mov    -0x14(%ebp),%eax
     2c7:	8d 14 85 00 00 00 00 	lea    0x0(,%eax,4),%edx
     2ce:	8b 45 d0             	mov    -0x30(%ebp),%eax
     2d1:	01 c2                	add    %eax,%edx
     2d3:	0f b6 45 94          	movzbl -0x6c(%ebp),%eax
     2d7:	0f b6 c0             	movzbl %al,%eax
     2da:	89 45 80             	mov    %eax,-0x80(%ebp)
     2dd:	db 45 80             	fildl  -0x80(%ebp)
     2e0:	d8 4d 9c             	fmuls  -0x64(%ebp)
     2e3:	0f b6 45 90          	movzbl -0x70(%ebp),%eax
     2e7:	0f b6 c0             	movzbl %al,%eax
     2ea:	89 45 80             	mov    %eax,-0x80(%ebp)
     2ed:	db 45 80             	fildl  -0x80(%ebp)
     2f0:	d8 4d 98             	fmuls  -0x68(%ebp)
     2f3:	de c1                	faddp  %st,%st(1)
     2f5:	0f b6 45 8c          	movzbl -0x74(%ebp),%eax
     2f9:	0f b6 c0             	movzbl %al,%eax
     2fc:	89 45 80             	mov    %eax,-0x80(%ebp)
     2ff:	db 45 80             	fildl  -0x80(%ebp)
     302:	d8 4d a0             	fmuls  -0x60(%ebp)
     305:	de c1                	faddp  %st,%st(1)
     307:	0f b6 45 88          	movzbl -0x78(%ebp),%eax
     30b:	0f b6 c0             	movzbl %al,%eax
     30e:	89 45 80             	mov    %eax,-0x80(%ebp)
     311:	db 45 80             	fildl  -0x80(%ebp)
     314:	d8 4d a4             	fmuls  -0x5c(%ebp)
     317:	de c1                	faddp  %st,%st(1)
     319:	d9 ad 7c ff ff ff    	fldcw  -0x84(%ebp)
     31f:	df 9d 7a ff ff ff    	fistp  -0x86(%ebp)
     325:	d9 ad 7e ff ff ff    	fldcw  -0x82(%ebp)
     32b:	0f b7 85 7a ff ff ff 	movzwl -0x86(%ebp),%eax
     332:	88 02                	mov    %al,(%edx)

            data[index].rgbRed = p1.rgbRed;
     334:	8b 45 ec             	mov    -0x14(%ebp),%eax
     337:	8d 14 85 00 00 00 00 	lea    0x0(,%eax,4),%edx
     33e:	8b 45 d0             	mov    -0x30(%ebp),%eax
     341:	01 c2                	add    %eax,%edx
     343:	0f b6 45 96          	movzbl -0x6a(%ebp),%eax
     347:	88 42 02             	mov    %al,0x2(%edx)
            data[index].rgbGreen = p1.rgbGreen;
     34a:	8b 45 ec             	mov    -0x14(%ebp),%eax
     34d:	8d 14 85 00 00 00 00 	lea    0x0(,%eax,4),%edx
     354:	8b 45 d0             	mov    -0x30(%ebp),%eax
     357:	01 c2                	add    %eax,%edx
     359:	0f b6 45 95          	movzbl -0x6b(%ebp),%eax
     35d:	88 42 01             	mov    %al,0x1(%edx)
            data[index].rgbBlue = p1.rgbBlue;
     360:	8b 45 ec             	mov    -0x14(%ebp),%eax
     363:	8d 14 85 00 00 00 00 	lea    0x0(,%eax,4),%edx
     36a:	8b 45 d0             	mov    -0x30(%ebp),%eax
     36d:	01 c2                	add    %eax,%edx
     36f:	0f b6 45 94          	movzbl -0x6c(%ebp),%eax
     373:	88 02                	mov    %al,(%edx)

            ++index;
     375:	83 45 ec 01          	addl   $0x1,-0x14(%ebp)
        y2 = (y1 == h0-1) ? y1 : y1 + 1;

        fy1 = y1-y0;
        fy2 = 1.0f-fy1;

        for (x = 0; x < w1; ++x) {
     379:	83 45 f4 01          	addl   $0x1,-0xc(%ebp)
     37d:	8b 45 f4             	mov    -0xc(%ebp),%eax
     380:	3b 45 e0             	cmp    -0x20(%ebp),%eax
     383:	0f 8c 6e fd ff ff    	jl     f7 <compressPic+0xf7>
    fh = h0 * 1.0 / h1;

    index = 0;
    data = (RGBQUAD*)malloc(w1*h1*sizeof(RGBQUAD));
    memset(data, 0, (uint)w1*h1*sizeof(RGBQUAD));
    for (y = 0; y < h1; ++y) {
     389:	83 45 f0 01          	addl   $0x1,-0x10(%ebp)
     38d:	8b 45 f0             	mov    -0x10(%ebp),%eax
     390:	3b 45 dc             	cmp    -0x24(%ebp),%eax
     393:	0f 8c ed fc ff ff    	jl     86 <compressPic+0x86>

            ++index;
        }
    }

    freepic(&pic);
     399:	c7 04 24 90 ff 00 00 	movl   $0xff90,(%esp)
     3a0:	e8 28 1a 00 00       	call   1dcd <freepic>
    pic.data = data;
     3a5:	8b 45 d0             	mov    -0x30(%ebp),%eax
     3a8:	a3 90 ff 00 00       	mov    %eax,0xff90
    pic.width = width;
     3ad:	8b 45 08             	mov    0x8(%ebp),%eax
     3b0:	a3 94 ff 00 00       	mov    %eax,0xff94
    pic.height = height;
     3b5:	8b 45 0c             	mov    0xc(%ebp),%eax
     3b8:	a3 98 ff 00 00       	mov    %eax,0xff98
}
     3bd:	c9                   	leave  
     3be:	c3                   	ret    

000003bf <modifyPic>:

void modifyPic(Context context) {
     3bf:	55                   	push   %ebp
     3c0:	89 e5                	mov    %esp,%ebp
     3c2:	83 ec 48             	sub    $0x48,%esp
    int c_width, c_height;
    int pic_width, pic_height;

    c_width = context.width;
     3c5:	8b 45 0c             	mov    0xc(%ebp),%eax
     3c8:	89 45 ec             	mov    %eax,-0x14(%ebp)
    c_height = context.height;
     3cb:	8b 45 10             	mov    0x10(%ebp),%eax
     3ce:	89 45 e8             	mov    %eax,-0x18(%ebp)
    pic_width = pic.width;
     3d1:	a1 94 ff 00 00       	mov    0xff94,%eax
     3d6:	89 45 f4             	mov    %eax,-0xc(%ebp)
    pic_height = pic.height;
     3d9:	a1 98 ff 00 00       	mov    0xff98,%eax
     3de:	89 45 f0             	mov    %eax,-0x10(%ebp)

    if (pic_width < c_width && pic_height < c_height) {
     3e1:	8b 45 f4             	mov    -0xc(%ebp),%eax
     3e4:	3b 45 ec             	cmp    -0x14(%ebp),%eax
     3e7:	7d 0d                	jge    3f6 <modifyPic+0x37>
     3e9:	8b 45 f0             	mov    -0x10(%ebp),%eax
     3ec:	3b 45 e8             	cmp    -0x18(%ebp),%eax
     3ef:	7d 05                	jge    3f6 <modifyPic+0x37>
        return;
     3f1:	e9 b6 00 00 00       	jmp    4ac <modifyPic+0xed>
    }

    float scale_p, scale_c;
    scale_p = pic_width * 1.0 / pic_height;
     3f6:	db 45 f4             	fildl  -0xc(%ebp)
     3f9:	db 45 f0             	fildl  -0x10(%ebp)
     3fc:	de f9                	fdivrp %st,%st(1)
     3fe:	d9 5d e4             	fstps  -0x1c(%ebp)
    scale_c = c_width * 1.0 / c_height;
     401:	db 45 ec             	fildl  -0x14(%ebp)
     404:	db 45 e8             	fildl  -0x18(%ebp)
     407:	de f9                	fdivrp %st,%st(1)
     409:	d9 5d e0             	fstps  -0x20(%ebp)

    if (scale_p <= scale_c) {
     40c:	d9 45 e0             	flds   -0x20(%ebp)
     40f:	d9 45 e4             	flds   -0x1c(%ebp)
     412:	d9 c9                	fxch   %st(1)
     414:	df e9                	fucomip %st(1),%st
     416:	dd d8                	fstp   %st(0)
     418:	72 30                	jb     44a <modifyPic+0x8b>
        pic_width = scale_p * (c_height-10);
     41a:	8b 45 e8             	mov    -0x18(%ebp),%eax
     41d:	83 e8 0a             	sub    $0xa,%eax
     420:	89 45 d0             	mov    %eax,-0x30(%ebp)
     423:	db 45 d0             	fildl  -0x30(%ebp)
     426:	d8 4d e4             	fmuls  -0x1c(%ebp)
     429:	d9 7d ce             	fnstcw -0x32(%ebp)
     42c:	0f b7 45 ce          	movzwl -0x32(%ebp),%eax
     430:	b4 0c                	mov    $0xc,%ah
     432:	66 89 45 cc          	mov    %ax,-0x34(%ebp)
     436:	d9 6d cc             	fldcw  -0x34(%ebp)
     439:	db 5d f4             	fistpl -0xc(%ebp)
     43c:	d9 6d ce             	fldcw  -0x32(%ebp)
        pic_height = c_height-10;
     43f:	8b 45 e8             	mov    -0x18(%ebp),%eax
     442:	83 e8 0a             	sub    $0xa,%eax
     445:	89 45 f0             	mov    %eax,-0x10(%ebp)
     448:	eb 2e                	jmp    478 <modifyPic+0xb9>
    } else {
        pic_height = (c_width-5) / scale_p;
     44a:	8b 45 ec             	mov    -0x14(%ebp),%eax
     44d:	83 e8 05             	sub    $0x5,%eax
     450:	89 45 d0             	mov    %eax,-0x30(%ebp)
     453:	db 45 d0             	fildl  -0x30(%ebp)
     456:	d8 75 e4             	fdivs  -0x1c(%ebp)
     459:	d9 7d ce             	fnstcw -0x32(%ebp)
     45c:	0f b7 45 ce          	movzwl -0x32(%ebp),%eax
     460:	b4 0c                	mov    $0xc,%ah
     462:	66 89 45 cc          	mov    %ax,-0x34(%ebp)
     466:	d9 6d cc             	fldcw  -0x34(%ebp)
     469:	db 5d f0             	fistpl -0x10(%ebp)
     46c:	d9 6d ce             	fldcw  -0x32(%ebp)
        pic_width = c_width-5;
     46f:	8b 45 ec             	mov    -0x14(%ebp),%eax
     472:	83 e8 05             	sub    $0x5,%eax
     475:	89 45 f4             	mov    %eax,-0xc(%ebp)
    }
    printf(0, "modifyPic: pic_width: %d, pic_height: %d\n", pic_width, pic_height);
     478:	8b 45 f0             	mov    -0x10(%ebp),%eax
     47b:	89 44 24 0c          	mov    %eax,0xc(%esp)
     47f:	8b 45 f4             	mov    -0xc(%ebp),%eax
     482:	89 44 24 08          	mov    %eax,0x8(%esp)
     486:	c7 44 24 04 40 92 00 	movl   $0x9240,0x4(%esp)
     48d:	00 
     48e:	c7 04 24 00 00 00 00 	movl   $0x0,(%esp)
     495:	e8 41 27 00 00       	call   2bdb <printf>

    compressPic(pic_width, pic_height);
     49a:	8b 45 f0             	mov    -0x10(%ebp),%eax
     49d:	89 44 24 04          	mov    %eax,0x4(%esp)
     4a1:	8b 45 f4             	mov    -0xc(%ebp),%eax
     4a4:	89 04 24             	mov    %eax,(%esp)
     4a7:	e8 54 fb ff ff       	call   0 <compressPic>
}
     4ac:	c9                   	leave  
     4ad:	c3                   	ret    

000004ae <drawPicViewerWnd>:

// 绘制窗口
void drawPicViewerWnd(Context context) {
     4ae:	55                   	push   %ebp
     4af:	89 e5                	mov    %esp,%ebp
     4b1:	83 ec 38             	sub    $0x38,%esp
    int width, height;

    width = context.width;
     4b4:	8b 45 0c             	mov    0xc(%ebp),%eax
     4b7:	89 45 f4             	mov    %eax,-0xc(%ebp)
    height = context.height;
     4ba:	8b 45 10             	mov    0x10(%ebp),%eax
     4bd:	89 45 f0             	mov    %eax,-0x10(%ebp)

    fill_rect(context, 0, 0, width, height, 0xFFFF);
     4c0:	8b 55 f0             	mov    -0x10(%ebp),%edx
     4c3:	8b 45 f4             	mov    -0xc(%ebp),%eax
     4c6:	c7 44 24 1c ff ff 00 	movl   $0xffff,0x1c(%esp)
     4cd:	00 
     4ce:	89 54 24 18          	mov    %edx,0x18(%esp)
     4d2:	89 44 24 14          	mov    %eax,0x14(%esp)
     4d6:	c7 44 24 10 00 00 00 	movl   $0x0,0x10(%esp)
     4dd:	00 
     4de:	c7 44 24 0c 00 00 00 	movl   $0x0,0xc(%esp)
     4e5:	00 
     4e6:	8b 45 08             	mov    0x8(%ebp),%eax
     4e9:	89 04 24             	mov    %eax,(%esp)
     4ec:	8b 45 0c             	mov    0xc(%ebp),%eax
     4ef:	89 44 24 04          	mov    %eax,0x4(%esp)
     4f3:	8b 45 10             	mov    0x10(%ebp),%eax
     4f6:	89 44 24 08          	mov    %eax,0x8(%esp)
     4fa:	e8 53 07 00 00       	call   c52 <fill_rect>

    draw_line(context, 0, 0, width-1, 0, BORDERLINE_COLOR);
     4ff:	8b 45 f4             	mov    -0xc(%ebp),%eax
     502:	83 e8 01             	sub    $0x1,%eax
     505:	c7 44 24 1c 00 00 00 	movl   $0x0,0x1c(%esp)
     50c:	00 
     50d:	c7 44 24 18 00 00 00 	movl   $0x0,0x18(%esp)
     514:	00 
     515:	89 44 24 14          	mov    %eax,0x14(%esp)
     519:	c7 44 24 10 00 00 00 	movl   $0x0,0x10(%esp)
     520:	00 
     521:	c7 44 24 0c 00 00 00 	movl   $0x0,0xc(%esp)
     528:	00 
     529:	8b 45 08             	mov    0x8(%ebp),%eax
     52c:	89 04 24             	mov    %eax,(%esp)
     52f:	8b 45 0c             	mov    0xc(%ebp),%eax
     532:	89 44 24 04          	mov    %eax,0x4(%esp)
     536:	8b 45 10             	mov    0x10(%ebp),%eax
     539:	89 44 24 08          	mov    %eax,0x8(%esp)
     53d:	e8 85 0e 00 00       	call   13c7 <draw_line>
    draw_line(context, width-1, 0, width-1, height-1, BORDERLINE_COLOR);
     542:	8b 45 f0             	mov    -0x10(%ebp),%eax
     545:	8d 48 ff             	lea    -0x1(%eax),%ecx
     548:	8b 45 f4             	mov    -0xc(%ebp),%eax
     54b:	8d 50 ff             	lea    -0x1(%eax),%edx
     54e:	8b 45 f4             	mov    -0xc(%ebp),%eax
     551:	83 e8 01             	sub    $0x1,%eax
     554:	c7 44 24 1c 00 00 00 	movl   $0x0,0x1c(%esp)
     55b:	00 
     55c:	89 4c 24 18          	mov    %ecx,0x18(%esp)
     560:	89 54 24 14          	mov    %edx,0x14(%esp)
     564:	c7 44 24 10 00 00 00 	movl   $0x0,0x10(%esp)
     56b:	00 
     56c:	89 44 24 0c          	mov    %eax,0xc(%esp)
     570:	8b 45 08             	mov    0x8(%ebp),%eax
     573:	89 04 24             	mov    %eax,(%esp)
     576:	8b 45 0c             	mov    0xc(%ebp),%eax
     579:	89 44 24 04          	mov    %eax,0x4(%esp)
     57d:	8b 45 10             	mov    0x10(%ebp),%eax
     580:	89 44 24 08          	mov    %eax,0x8(%esp)
     584:	e8 3e 0e 00 00       	call   13c7 <draw_line>
    draw_line(context, 0, height-1, width-1, height-1, BORDERLINE_COLOR);
     589:	8b 45 f0             	mov    -0x10(%ebp),%eax
     58c:	8d 48 ff             	lea    -0x1(%eax),%ecx
     58f:	8b 45 f4             	mov    -0xc(%ebp),%eax
     592:	8d 50 ff             	lea    -0x1(%eax),%edx
     595:	8b 45 f0             	mov    -0x10(%ebp),%eax
     598:	83 e8 01             	sub    $0x1,%eax
     59b:	c7 44 24 1c 00 00 00 	movl   $0x0,0x1c(%esp)
     5a2:	00 
     5a3:	89 4c 24 18          	mov    %ecx,0x18(%esp)
     5a7:	89 54 24 14          	mov    %edx,0x14(%esp)
     5ab:	89 44 24 10          	mov    %eax,0x10(%esp)
     5af:	c7 44 24 0c 00 00 00 	movl   $0x0,0xc(%esp)
     5b6:	00 
     5b7:	8b 45 08             	mov    0x8(%ebp),%eax
     5ba:	89 04 24             	mov    %eax,(%esp)
     5bd:	8b 45 0c             	mov    0xc(%ebp),%eax
     5c0:	89 44 24 04          	mov    %eax,0x4(%esp)
     5c4:	8b 45 10             	mov    0x10(%ebp),%eax
     5c7:	89 44 24 08          	mov    %eax,0x8(%esp)
     5cb:	e8 f7 0d 00 00       	call   13c7 <draw_line>
    draw_line(context, 0, height-1, 0, 0, BORDERLINE_COLOR);
     5d0:	8b 45 f0             	mov    -0x10(%ebp),%eax
     5d3:	83 e8 01             	sub    $0x1,%eax
     5d6:	c7 44 24 1c 00 00 00 	movl   $0x0,0x1c(%esp)
     5dd:	00 
     5de:	c7 44 24 18 00 00 00 	movl   $0x0,0x18(%esp)
     5e5:	00 
     5e6:	c7 44 24 14 00 00 00 	movl   $0x0,0x14(%esp)
     5ed:	00 
     5ee:	89 44 24 10          	mov    %eax,0x10(%esp)
     5f2:	c7 44 24 0c 00 00 00 	movl   $0x0,0xc(%esp)
     5f9:	00 
     5fa:	8b 45 08             	mov    0x8(%ebp),%eax
     5fd:	89 04 24             	mov    %eax,(%esp)
     600:	8b 45 0c             	mov    0xc(%ebp),%eax
     603:	89 44 24 04          	mov    %eax,0x4(%esp)
     607:	8b 45 10             	mov    0x10(%ebp),%eax
     60a:	89 44 24 08          	mov    %eax,0x8(%esp)
     60e:	e8 b4 0d 00 00       	call   13c7 <draw_line>

    fill_rect(context, 1, 1, width-2, TOPBAR_HEIGHT, TOPBAR_COLOR);
     613:	8b 45 f4             	mov    -0xc(%ebp),%eax
     616:	83 e8 02             	sub    $0x2,%eax
     619:	c7 44 24 1c cb 5a 00 	movl   $0x5acb,0x1c(%esp)
     620:	00 
     621:	c7 44 24 18 14 00 00 	movl   $0x14,0x18(%esp)
     628:	00 
     629:	89 44 24 14          	mov    %eax,0x14(%esp)
     62d:	c7 44 24 10 01 00 00 	movl   $0x1,0x10(%esp)
     634:	00 
     635:	c7 44 24 0c 01 00 00 	movl   $0x1,0xc(%esp)
     63c:	00 
     63d:	8b 45 08             	mov    0x8(%ebp),%eax
     640:	89 04 24             	mov    %eax,(%esp)
     643:	8b 45 0c             	mov    0xc(%ebp),%eax
     646:	89 44 24 04          	mov    %eax,0x4(%esp)
     64a:	8b 45 10             	mov    0x10(%ebp),%eax
     64d:	89 44 24 08          	mov    %eax,0x8(%esp)
     651:	e8 fc 05 00 00       	call   c52 <fill_rect>
    puts_str(context, "PictureViewer", 0, WINDOW_WIDTH/2 - 53, 3);
     656:	c7 44 24 18 03 00 00 	movl   $0x3,0x18(%esp)
     65d:	00 
     65e:	c7 44 24 14 c5 00 00 	movl   $0xc5,0x14(%esp)
     665:	00 
     666:	c7 44 24 10 00 00 00 	movl   $0x0,0x10(%esp)
     66d:	00 
     66e:	c7 44 24 0c 6a 92 00 	movl   $0x926a,0xc(%esp)
     675:	00 
     676:	8b 45 08             	mov    0x8(%ebp),%eax
     679:	89 04 24             	mov    %eax,(%esp)
     67c:	8b 45 0c             	mov    0xc(%ebp),%eax
     67f:	89 44 24 04          	mov    %eax,0x4(%esp)
     683:	8b 45 10             	mov    0x10(%ebp),%eax
     686:	89 44 24 08          	mov    %eax,0x8(%esp)
     68a:	e8 a2 0b 00 00       	call   1231 <puts_str>

    draw_iconlist(context, wndRes, sizeof(wndRes) / sizeof(ICON));
     68f:	c7 44 24 10 01 00 00 	movl   $0x1,0x10(%esp)
     696:	00 
     697:	c7 44 24 0c 60 cc 00 	movl   $0xcc60,0xc(%esp)
     69e:	00 
     69f:	8b 45 08             	mov    0x8(%ebp),%eax
     6a2:	89 04 24             	mov    %eax,(%esp)
     6a5:	8b 45 0c             	mov    0xc(%ebp),%eax
     6a8:	89 44 24 04          	mov    %eax,0x4(%esp)
     6ac:	8b 45 10             	mov    0x10(%ebp),%eax
     6af:	89 44 24 08          	mov    %eax,0x8(%esp)
     6b3:	e8 ea 10 00 00       	call   17a2 <draw_iconlist>
}
     6b8:	c9                   	leave  
     6b9:	c3                   	ret    

000006ba <drawPicViewerContent>:

void drawPicViewerContent(Context context, char* fileName) {
     6ba:	55                   	push   %ebp
     6bb:	89 e5                	mov    %esp,%ebp
     6bd:	83 ec 38             	sub    $0x38,%esp
    int c_width, c_height;
    int pic_width, pic_height;

    c_width = context.width;
     6c0:	8b 45 0c             	mov    0xc(%ebp),%eax
     6c3:	89 45 f4             	mov    %eax,-0xc(%ebp)
    c_height = context.height;
     6c6:	8b 45 10             	mov    0x10(%ebp),%eax
     6c9:	89 45 f0             	mov    %eax,-0x10(%ebp)
    pic_width = pic.width;
     6cc:	a1 94 ff 00 00       	mov    0xff94,%eax
     6d1:	89 45 ec             	mov    %eax,-0x14(%ebp)
    pic_height = pic.height;
     6d4:	a1 98 ff 00 00       	mov    0xff98,%eax
     6d9:	89 45 e8             	mov    %eax,-0x18(%ebp)

    printf(0, "drawPicViewerContent: pic_width: %d, pic_height: %d\n", pic_width, pic_height);
     6dc:	8b 45 e8             	mov    -0x18(%ebp),%eax
     6df:	89 44 24 0c          	mov    %eax,0xc(%esp)
     6e3:	8b 45 ec             	mov    -0x14(%ebp),%eax
     6e6:	89 44 24 08          	mov    %eax,0x8(%esp)
     6ea:	c7 44 24 04 78 92 00 	movl   $0x9278,0x4(%esp)
     6f1:	00 
     6f2:	c7 04 24 00 00 00 00 	movl   $0x0,(%esp)
     6f9:	e8 dd 24 00 00       	call   2bdb <printf>
    draw_picture(context, pic, (c_width-pic_width) >> 1, TOPBAR_HEIGHT + ((c_height-pic_height) >> 1));
     6fe:	8b 45 e8             	mov    -0x18(%ebp),%eax
     701:	8b 55 f0             	mov    -0x10(%ebp),%edx
     704:	29 c2                	sub    %eax,%edx
     706:	89 d0                	mov    %edx,%eax
     708:	d1 f8                	sar    %eax
     70a:	8d 50 14             	lea    0x14(%eax),%edx
     70d:	8b 45 ec             	mov    -0x14(%ebp),%eax
     710:	8b 4d f4             	mov    -0xc(%ebp),%ecx
     713:	29 c1                	sub    %eax,%ecx
     715:	89 c8                	mov    %ecx,%eax
     717:	d1 f8                	sar    %eax
     719:	89 54 24 1c          	mov    %edx,0x1c(%esp)
     71d:	89 44 24 18          	mov    %eax,0x18(%esp)
     721:	a1 90 ff 00 00       	mov    0xff90,%eax
     726:	89 44 24 0c          	mov    %eax,0xc(%esp)
     72a:	a1 94 ff 00 00       	mov    0xff94,%eax
     72f:	89 44 24 10          	mov    %eax,0x10(%esp)
     733:	a1 98 ff 00 00       	mov    0xff98,%eax
     738:	89 44 24 14          	mov    %eax,0x14(%esp)
     73c:	8b 45 08             	mov    0x8(%ebp),%eax
     73f:	89 04 24             	mov    %eax,(%esp)
     742:	8b 45 0c             	mov    0xc(%ebp),%eax
     745:	89 44 24 04          	mov    %eax,0x4(%esp)
     749:	8b 45 10             	mov    0x10(%ebp),%eax
     74c:	89 44 24 08          	mov    %eax,0x8(%esp)
     750:	e8 9c 0b 00 00       	call   12f1 <draw_picture>
}
     755:	c9                   	leave  
     756:	c3                   	ret    

00000757 <h_closeWnd>:

void h_closeWnd(Point p) {
     757:	55                   	push   %ebp
     758:	89 e5                	mov    %esp,%ebp
    isRun = 0;
     75a:	c7 05 98 cc 00 00 00 	movl   $0x0,0xcc98
     761:	00 00 00 
}
     764:	5d                   	pop    %ebp
     765:	c3                   	ret    

00000766 <addWndEvent>:

void addWndEvent(ClickableManager *cm) {
     766:	55                   	push   %ebp
     767:	89 e5                	mov    %esp,%ebp
     769:	57                   	push   %edi
     76a:	56                   	push   %esi
     76b:	53                   	push   %ebx
     76c:	83 ec 4c             	sub    $0x4c,%esp
    int i;
	int n = sizeof(wndEvents) / sizeof(Handler);
     76f:	c7 45 e0 01 00 00 00 	movl   $0x1,-0x20(%ebp)

	for (i = 0; i < n; i++) {
     776:	c7 45 e4 00 00 00 00 	movl   $0x0,-0x1c(%ebp)
     77d:	e9 96 00 00 00       	jmp    818 <addWndEvent+0xb2>
		createClickable(cm,
     782:	8b 45 e4             	mov    -0x1c(%ebp),%eax
     785:	8b 1c 85 94 cc 00 00 	mov    0xcc94(,%eax,4),%ebx
     78c:	8b 45 e4             	mov    -0x1c(%ebp),%eax
     78f:	6b c0 34             	imul   $0x34,%eax,%eax
     792:	05 80 cc 00 00       	add    $0xcc80,%eax
     797:	8b 78 10             	mov    0x10(%eax),%edi
     79a:	8b 45 e4             	mov    -0x1c(%ebp),%eax
     79d:	6b c0 34             	imul   $0x34,%eax,%eax
     7a0:	05 80 cc 00 00       	add    $0xcc80,%eax
     7a5:	8b 70 0c             	mov    0xc(%eax),%esi
     7a8:	8b 45 e4             	mov    -0x1c(%ebp),%eax
     7ab:	6b c0 34             	imul   $0x34,%eax,%eax
     7ae:	05 80 cc 00 00       	add    $0xcc80,%eax
     7b3:	8b 48 04             	mov    0x4(%eax),%ecx
     7b6:	8b 45 e4             	mov    -0x1c(%ebp),%eax
     7b9:	6b c0 34             	imul   $0x34,%eax,%eax
     7bc:	05 80 cc 00 00       	add    $0xcc80,%eax
     7c1:	8b 10                	mov    (%eax),%edx
     7c3:	8d 45 d0             	lea    -0x30(%ebp),%eax
     7c6:	89 7c 24 10          	mov    %edi,0x10(%esp)
     7ca:	89 74 24 0c          	mov    %esi,0xc(%esp)
     7ce:	89 4c 24 08          	mov    %ecx,0x8(%esp)
     7d2:	89 54 24 04          	mov    %edx,0x4(%esp)
     7d6:	89 04 24             	mov    %eax,(%esp)
     7d9:	e8 be 18 00 00       	call   209c <initRect>
     7de:	83 ec 04             	sub    $0x4,%esp
     7e1:	89 5c 24 18          	mov    %ebx,0x18(%esp)
     7e5:	c7 44 24 14 02 00 00 	movl   $0x2,0x14(%esp)
     7ec:	00 
     7ed:	8b 45 d0             	mov    -0x30(%ebp),%eax
     7f0:	89 44 24 04          	mov    %eax,0x4(%esp)
     7f4:	8b 45 d4             	mov    -0x2c(%ebp),%eax
     7f7:	89 44 24 08          	mov    %eax,0x8(%esp)
     7fb:	8b 45 d8             	mov    -0x28(%ebp),%eax
     7fe:	89 44 24 0c          	mov    %eax,0xc(%esp)
     802:	8b 45 dc             	mov    -0x24(%ebp),%eax
     805:	89 44 24 10          	mov    %eax,0x10(%esp)
     809:	8b 45 08             	mov    0x8(%ebp),%eax
     80c:	89 04 24             	mov    %eax,(%esp)
     80f:	e8 74 19 00 00       	call   2188 <createClickable>

void addWndEvent(ClickableManager *cm) {
    int i;
	int n = sizeof(wndEvents) / sizeof(Handler);

	for (i = 0; i < n; i++) {
     814:	83 45 e4 01          	addl   $0x1,-0x1c(%ebp)
     818:	8b 45 e4             	mov    -0x1c(%ebp),%eax
     81b:	3b 45 e0             	cmp    -0x20(%ebp),%eax
     81e:	0f 8c 5e ff ff ff    	jl     782 <addWndEvent+0x1c>
		createClickable(cm,
				initRect(wndRes[i].position_x, wndRes[i].position_y,
						wndRes[i].pic.width, wndRes[i].pic.height), MSG_LPRESS,
				wndEvents[i]);
	}
}
     824:	8d 65 f4             	lea    -0xc(%ebp),%esp
     827:	5b                   	pop    %ebx
     828:	5e                   	pop    %esi
     829:	5f                   	pop    %edi
     82a:	5d                   	pop    %ebp
     82b:	c3                   	ret    

0000082c <main>:

int main(int argc, char *argv[]) {
     82c:	8d 4c 24 04          	lea    0x4(%esp),%ecx
     830:	83 e4 f0             	and    $0xfffffff0,%esp
     833:	ff 71 fc             	pushl  -0x4(%ecx)
     836:	55                   	push   %ebp
     837:	89 e5                	mov    %esp,%ebp
     839:	57                   	push   %edi
     83a:	56                   	push   %esi
     83b:	53                   	push   %ebx
     83c:	51                   	push   %ecx
     83d:	81 ec a8 00 00 00    	sub    $0xa8,%esp
     843:	89 cb                	mov    %ecx,%ebx
    ClickableManager cm;
    int winid;
    struct Msg msg;
    Point p;

    winid = init_context(&context, WINDOW_WIDTH, WINDOW_HEIGHT);
     845:	c7 44 24 08 36 01 00 	movl   $0x136,0x8(%esp)
     84c:	00 
     84d:	c7 44 24 04 f4 01 00 	movl   $0x1f4,0x4(%esp)
     854:	00 
     855:	8d 45 c8             	lea    -0x38(%ebp),%eax
     858:	89 04 24             	mov    %eax,(%esp)
     85b:	e8 06 03 00 00       	call   b66 <init_context>
     860:	89 45 e4             	mov    %eax,-0x1c(%ebp)
    cm = initClickManager(context);
     863:	8d 85 68 ff ff ff    	lea    -0x98(%ebp),%eax
     869:	8b 55 c8             	mov    -0x38(%ebp),%edx
     86c:	89 54 24 04          	mov    %edx,0x4(%esp)
     870:	8b 55 cc             	mov    -0x34(%ebp),%edx
     873:	89 54 24 08          	mov    %edx,0x8(%esp)
     877:	8b 55 d0             	mov    -0x30(%ebp),%edx
     87a:	89 54 24 0c          	mov    %edx,0xc(%esp)
     87e:	89 04 24             	mov    %eax,(%esp)
     881:	e8 b4 18 00 00       	call   213a <initClickManager>
     886:	83 ec 04             	sub    $0x4,%esp
     889:	8b 85 68 ff ff ff    	mov    -0x98(%ebp),%eax
     88f:	89 45 b4             	mov    %eax,-0x4c(%ebp)
     892:	8b 85 6c ff ff ff    	mov    -0x94(%ebp),%eax
     898:	89 45 b8             	mov    %eax,-0x48(%ebp)
     89b:	8b 85 70 ff ff ff    	mov    -0x90(%ebp),%eax
     8a1:	89 45 bc             	mov    %eax,-0x44(%ebp)
     8a4:	8b 85 74 ff ff ff    	mov    -0x8c(%ebp),%eax
     8aa:	89 45 c0             	mov    %eax,-0x40(%ebp)
     8ad:	8b 85 78 ff ff ff    	mov    -0x88(%ebp),%eax
     8b3:	89 45 c4             	mov    %eax,-0x3c(%ebp)

    loadBitmap(&pic, argv[1]);
     8b6:	8b 43 04             	mov    0x4(%ebx),%eax
     8b9:	83 c0 04             	add    $0x4,%eax
     8bc:	8b 00                	mov    (%eax),%eax
     8be:	89 44 24 04          	mov    %eax,0x4(%esp)
     8c2:	c7 04 24 90 ff 00 00 	movl   $0xff90,(%esp)
     8c9:	e8 53 0f 00 00       	call   1821 <loadBitmap>
    load_iconlist(wndRes, sizeof(wndRes) / sizeof(ICON));
     8ce:	c7 44 24 04 01 00 00 	movl   $0x1,0x4(%esp)
     8d5:	00 
     8d6:	c7 04 24 60 cc 00 00 	movl   $0xcc60,(%esp)
     8dd:	e8 7e 0e 00 00       	call   1760 <load_iconlist>

    modifyPic(context);
     8e2:	8b 45 c8             	mov    -0x38(%ebp),%eax
     8e5:	89 04 24             	mov    %eax,(%esp)
     8e8:	8b 45 cc             	mov    -0x34(%ebp),%eax
     8eb:	89 44 24 04          	mov    %eax,0x4(%esp)
     8ef:	8b 45 d0             	mov    -0x30(%ebp),%eax
     8f2:	89 44 24 08          	mov    %eax,0x8(%esp)
     8f6:	e8 c4 fa ff ff       	call   3bf <modifyPic>
    deleteClickable(&cm.left_click, initRect(0, 0, 800, 600));
     8fb:	8d 45 d4             	lea    -0x2c(%ebp),%eax
     8fe:	c7 44 24 10 58 02 00 	movl   $0x258,0x10(%esp)
     905:	00 
     906:	c7 44 24 0c 20 03 00 	movl   $0x320,0xc(%esp)
     90d:	00 
     90e:	c7 44 24 08 00 00 00 	movl   $0x0,0x8(%esp)
     915:	00 
     916:	c7 44 24 04 00 00 00 	movl   $0x0,0x4(%esp)
     91d:	00 
     91e:	89 04 24             	mov    %eax,(%esp)
     921:	e8 76 17 00 00       	call   209c <initRect>
     926:	83 ec 04             	sub    $0x4,%esp
     929:	8b 45 d4             	mov    -0x2c(%ebp),%eax
     92c:	89 44 24 04          	mov    %eax,0x4(%esp)
     930:	8b 45 d8             	mov    -0x28(%ebp),%eax
     933:	89 44 24 08          	mov    %eax,0x8(%esp)
     937:	8b 45 dc             	mov    -0x24(%ebp),%eax
     93a:	89 44 24 0c          	mov    %eax,0xc(%esp)
     93e:	8b 45 e0             	mov    -0x20(%ebp),%eax
     941:	89 44 24 10          	mov    %eax,0x10(%esp)
     945:	8d 45 b4             	lea    -0x4c(%ebp),%eax
     948:	89 04 24             	mov    %eax,(%esp)
     94b:	e8 4f 19 00 00       	call   229f <deleteClickable>
    addWndEvent(&cm);
     950:	8d 45 b4             	lea    -0x4c(%ebp),%eax
     953:	89 04 24             	mov    %eax,(%esp)
     956:	e8 0b fe ff ff       	call   766 <addWndEvent>

    while (isRun) {
     95b:	e9 e2 01 00 00       	jmp    b42 <main+0x316>
        getMsg(&msg);
     960:	8d 45 98             	lea    -0x68(%ebp),%eax
     963:	89 04 24             	mov    %eax,(%esp)
     966:	e8 28 21 00 00       	call   2a93 <getMsg>
        switch (msg.msg_type) {
     96b:	8b 45 98             	mov    -0x68(%ebp),%eax
     96e:	83 f8 08             	cmp    $0x8,%eax
     971:	0f 87 ca 01 00 00    	ja     b41 <main+0x315>
     977:	8b 04 85 b0 92 00 00 	mov    0x92b0(,%eax,4),%eax
     97e:	ff e0                	jmp    *%eax
		case MSG_DOUBLECLICK:
			p = initPoint(msg.concrete_msg.msg_mouse.x,
     980:	8b 4d a4             	mov    -0x5c(%ebp),%ecx
     983:	8b 55 a0             	mov    -0x60(%ebp),%edx
     986:	8d 45 90             	lea    -0x70(%ebp),%eax
     989:	89 4c 24 08          	mov    %ecx,0x8(%esp)
     98d:	89 54 24 04          	mov    %edx,0x4(%esp)
     991:	89 04 24             	mov    %eax,(%esp)
     994:	e8 dc 16 00 00       	call   2075 <initPoint>
     999:	83 ec 04             	sub    $0x4,%esp
					msg.concrete_msg.msg_mouse.y);
			if (executeHandler(cm.double_click, p)) {
     99c:	8b 4d b8             	mov    -0x48(%ebp),%ecx
     99f:	8b 45 90             	mov    -0x70(%ebp),%eax
     9a2:	8b 55 94             	mov    -0x6c(%ebp),%edx
     9a5:	89 44 24 04          	mov    %eax,0x4(%esp)
     9a9:	89 54 24 08          	mov    %edx,0x8(%esp)
     9ad:	89 0c 24             	mov    %ecx,(%esp)
     9b0:	e8 ca 19 00 00       	call   237f <executeHandler>
     9b5:	85 c0                	test   %eax,%eax
     9b7:	74 1e                	je     9d7 <main+0x1ab>
				updateWindow(winid, context.addr, msg.msg_detail);
     9b9:	8b 55 9c             	mov    -0x64(%ebp),%edx
     9bc:	8b 45 c8             	mov    -0x38(%ebp),%eax
     9bf:	89 54 24 08          	mov    %edx,0x8(%esp)
     9c3:	89 44 24 04          	mov    %eax,0x4(%esp)
     9c7:	8b 45 e4             	mov    -0x1c(%ebp),%eax
     9ca:	89 04 24             	mov    %eax,(%esp)
     9cd:	e8 d9 20 00 00       	call   2aab <updateWindow>
			}
			break;
     9d2:	e9 6b 01 00 00       	jmp    b42 <main+0x316>
     9d7:	e9 66 01 00 00       	jmp    b42 <main+0x316>
		case MSG_UPDATE:
			drawPicViewerWnd(context);
     9dc:	8b 45 c8             	mov    -0x38(%ebp),%eax
     9df:	89 04 24             	mov    %eax,(%esp)
     9e2:	8b 45 cc             	mov    -0x34(%ebp),%eax
     9e5:	89 44 24 04          	mov    %eax,0x4(%esp)
     9e9:	8b 45 d0             	mov    -0x30(%ebp),%eax
     9ec:	89 44 24 08          	mov    %eax,0x8(%esp)
     9f0:	e8 b9 fa ff ff       	call   4ae <drawPicViewerWnd>
			drawPicViewerContent(context, argv[1]);
     9f5:	8b 43 04             	mov    0x4(%ebx),%eax
     9f8:	83 c0 04             	add    $0x4,%eax
     9fb:	8b 00                	mov    (%eax),%eax
     9fd:	89 44 24 0c          	mov    %eax,0xc(%esp)
     a01:	8b 45 c8             	mov    -0x38(%ebp),%eax
     a04:	89 04 24             	mov    %eax,(%esp)
     a07:	8b 45 cc             	mov    -0x34(%ebp),%eax
     a0a:	89 44 24 04          	mov    %eax,0x4(%esp)
     a0e:	8b 45 d0             	mov    -0x30(%ebp),%eax
     a11:	89 44 24 08          	mov    %eax,0x8(%esp)
     a15:	e8 a0 fc ff ff       	call   6ba <drawPicViewerContent>
			updateWindow(winid, context.addr, msg.msg_detail);
     a1a:	8b 55 9c             	mov    -0x64(%ebp),%edx
     a1d:	8b 45 c8             	mov    -0x38(%ebp),%eax
     a20:	89 54 24 08          	mov    %edx,0x8(%esp)
     a24:	89 44 24 04          	mov    %eax,0x4(%esp)
     a28:	8b 45 e4             	mov    -0x1c(%ebp),%eax
     a2b:	89 04 24             	mov    %eax,(%esp)
     a2e:	e8 78 20 00 00       	call   2aab <updateWindow>
			break;
     a33:	e9 0a 01 00 00       	jmp    b42 <main+0x316>
		case MSG_PARTIAL_UPDATE:
			updatePartialWindow(winid, context.addr,
     a38:	8b 7d ac             	mov    -0x54(%ebp),%edi
     a3b:	8b 75 a8             	mov    -0x58(%ebp),%esi
     a3e:	8b 4d a4             	mov    -0x5c(%ebp),%ecx
     a41:	8b 55 a0             	mov    -0x60(%ebp),%edx
     a44:	8b 45 c8             	mov    -0x38(%ebp),%eax
     a47:	89 7c 24 14          	mov    %edi,0x14(%esp)
     a4b:	89 74 24 10          	mov    %esi,0x10(%esp)
     a4f:	89 4c 24 0c          	mov    %ecx,0xc(%esp)
     a53:	89 54 24 08          	mov    %edx,0x8(%esp)
     a57:	89 44 24 04          	mov    %eax,0x4(%esp)
     a5b:	8b 45 e4             	mov    -0x1c(%ebp),%eax
     a5e:	89 04 24             	mov    %eax,(%esp)
     a61:	e8 4d 20 00 00       	call   2ab3 <updatePartialWindow>
					msg.concrete_msg.msg_partial_update.x1,
					msg.concrete_msg.msg_partial_update.y1,
					msg.concrete_msg.msg_partial_update.x2,
					msg.concrete_msg.msg_partial_update.y2);
			break;
     a66:	e9 d7 00 00 00       	jmp    b42 <main+0x316>
		case MSG_LPRESS:
			p = initPoint(msg.concrete_msg.msg_mouse.x,
     a6b:	8b 4d a4             	mov    -0x5c(%ebp),%ecx
     a6e:	8b 55 a0             	mov    -0x60(%ebp),%edx
     a71:	8d 85 60 ff ff ff    	lea    -0xa0(%ebp),%eax
     a77:	89 4c 24 08          	mov    %ecx,0x8(%esp)
     a7b:	89 54 24 04          	mov    %edx,0x4(%esp)
     a7f:	89 04 24             	mov    %eax,(%esp)
     a82:	e8 ee 15 00 00       	call   2075 <initPoint>
     a87:	83 ec 04             	sub    $0x4,%esp
     a8a:	8b 85 60 ff ff ff    	mov    -0xa0(%ebp),%eax
     a90:	8b 95 64 ff ff ff    	mov    -0x9c(%ebp),%edx
     a96:	89 45 90             	mov    %eax,-0x70(%ebp)
     a99:	89 55 94             	mov    %edx,-0x6c(%ebp)
					msg.concrete_msg.msg_mouse.y);
			if (executeHandler(cm.left_click, p)) {
     a9c:	8b 4d b4             	mov    -0x4c(%ebp),%ecx
     a9f:	8b 45 90             	mov    -0x70(%ebp),%eax
     aa2:	8b 55 94             	mov    -0x6c(%ebp),%edx
     aa5:	89 44 24 04          	mov    %eax,0x4(%esp)
     aa9:	89 54 24 08          	mov    %edx,0x8(%esp)
     aad:	89 0c 24             	mov    %ecx,(%esp)
     ab0:	e8 ca 18 00 00       	call   237f <executeHandler>
     ab5:	85 c0                	test   %eax,%eax
     ab7:	74 1b                	je     ad4 <main+0x2a8>

				updateWindow(winid, context.addr, msg.msg_detail);
     ab9:	8b 55 9c             	mov    -0x64(%ebp),%edx
     abc:	8b 45 c8             	mov    -0x38(%ebp),%eax
     abf:	89 54 24 08          	mov    %edx,0x8(%esp)
     ac3:	89 44 24 04          	mov    %eax,0x4(%esp)
     ac7:	8b 45 e4             	mov    -0x1c(%ebp),%eax
     aca:	89 04 24             	mov    %eax,(%esp)
     acd:	e8 d9 1f 00 00       	call   2aab <updateWindow>
			}
			break;
     ad2:	eb 6e                	jmp    b42 <main+0x316>
     ad4:	eb 6c                	jmp    b42 <main+0x316>
		case MSG_RPRESS:
			p = initPoint(msg.concrete_msg.msg_mouse.x,
     ad6:	8b 4d a4             	mov    -0x5c(%ebp),%ecx
     ad9:	8b 55 a0             	mov    -0x60(%ebp),%edx
     adc:	8d 85 60 ff ff ff    	lea    -0xa0(%ebp),%eax
     ae2:	89 4c 24 08          	mov    %ecx,0x8(%esp)
     ae6:	89 54 24 04          	mov    %edx,0x4(%esp)
     aea:	89 04 24             	mov    %eax,(%esp)
     aed:	e8 83 15 00 00       	call   2075 <initPoint>
     af2:	83 ec 04             	sub    $0x4,%esp
     af5:	8b 85 60 ff ff ff    	mov    -0xa0(%ebp),%eax
     afb:	8b 95 64 ff ff ff    	mov    -0x9c(%ebp),%edx
     b01:	89 45 90             	mov    %eax,-0x70(%ebp)
     b04:	89 55 94             	mov    %edx,-0x6c(%ebp)
					msg.concrete_msg.msg_mouse.y);
			if (executeHandler(cm.right_click, p)) {
     b07:	8b 4d bc             	mov    -0x44(%ebp),%ecx
     b0a:	8b 45 90             	mov    -0x70(%ebp),%eax
     b0d:	8b 55 94             	mov    -0x6c(%ebp),%edx
     b10:	89 44 24 04          	mov    %eax,0x4(%esp)
     b14:	89 54 24 08          	mov    %edx,0x8(%esp)
     b18:	89 0c 24             	mov    %ecx,(%esp)
     b1b:	e8 5f 18 00 00       	call   237f <executeHandler>
     b20:	85 c0                	test   %eax,%eax
     b22:	74 1b                	je     b3f <main+0x313>
				updateWindow(winid, context.addr, msg.msg_detail);
     b24:	8b 55 9c             	mov    -0x64(%ebp),%edx
     b27:	8b 45 c8             	mov    -0x38(%ebp),%eax
     b2a:	89 54 24 08          	mov    %edx,0x8(%esp)
     b2e:	89 44 24 04          	mov    %eax,0x4(%esp)
     b32:	8b 45 e4             	mov    -0x1c(%ebp),%eax
     b35:	89 04 24             	mov    %eax,(%esp)
     b38:	e8 6e 1f 00 00       	call   2aab <updateWindow>
			}
			break;
     b3d:	eb 03                	jmp    b42 <main+0x316>
     b3f:	eb 01                	jmp    b42 <main+0x316>
		default:
			break;
     b41:	90                   	nop

    modifyPic(context);
    deleteClickable(&cm.left_click, initRect(0, 0, 800, 600));
    addWndEvent(&cm);

    while (isRun) {
     b42:	a1 98 cc 00 00       	mov    0xcc98,%eax
     b47:	85 c0                	test   %eax,%eax
     b49:	0f 85 11 fe ff ff    	jne    960 <main+0x134>
			break;
		default:
			break;
		}
    }
    free_context(&context, winid);
     b4f:	8b 45 e4             	mov    -0x1c(%ebp),%eax
     b52:	89 44 24 04          	mov    %eax,0x4(%esp)
     b56:	8d 45 c8             	lea    -0x38(%ebp),%eax
     b59:	89 04 24             	mov    %eax,(%esp)
     b5c:	e8 88 00 00 00       	call   be9 <free_context>
    exit();
     b61:	e8 8d 1e 00 00       	call   29f3 <exit>

00000b66 <init_context>:
#include "stat.h"
#include "user.h"
#include "drawingAPI.h"

int init_context(struct Context* context_ptr, int width, int height)
{
     b66:	55                   	push   %ebp
     b67:	89 e5                	mov    %esp,%ebp
     b69:	83 ec 18             	sub    $0x18,%esp
    context_ptr->width = width;
     b6c:	8b 45 08             	mov    0x8(%ebp),%eax
     b6f:	8b 55 0c             	mov    0xc(%ebp),%edx
     b72:	89 50 04             	mov    %edx,0x4(%eax)
    context_ptr->height = height;
     b75:	8b 45 08             	mov    0x8(%ebp),%eax
     b78:	8b 55 10             	mov    0x10(%ebp),%edx
     b7b:	89 50 08             	mov    %edx,0x8(%eax)
    context_ptr->addr = (unsigned short*)malloc(sizeof(unsigned short) * width * height);
     b7e:	8b 55 0c             	mov    0xc(%ebp),%edx
     b81:	8b 45 10             	mov    0x10(%ebp),%eax
     b84:	0f af c2             	imul   %edx,%eax
     b87:	01 c0                	add    %eax,%eax
     b89:	89 04 24             	mov    %eax,(%esp)
     b8c:	e8 36 23 00 00       	call   2ec7 <malloc>
     b91:	8b 55 08             	mov    0x8(%ebp),%edx
     b94:	89 02                	mov    %eax,(%edx)
    memset(context_ptr->addr, 0, sizeof(unsigned short) * width * height);
     b96:	8b 55 0c             	mov    0xc(%ebp),%edx
     b99:	8b 45 10             	mov    0x10(%ebp),%eax
     b9c:	0f af c2             	imul   %edx,%eax
     b9f:	8d 14 00             	lea    (%eax,%eax,1),%edx
     ba2:	8b 45 08             	mov    0x8(%ebp),%eax
     ba5:	8b 00                	mov    (%eax),%eax
     ba7:	89 54 24 08          	mov    %edx,0x8(%esp)
     bab:	c7 44 24 04 00 00 00 	movl   $0x0,0x4(%esp)
     bb2:	00 
     bb3:	89 04 24             	mov    %eax,(%esp)
     bb6:	e8 8b 1c 00 00       	call   2846 <memset>
    initializeASCII();
     bbb:	e8 93 01 00 00       	call   d53 <initializeASCII>
    initializeGBK();
     bc0:	e8 17 03 00 00       	call   edc <initializeGBK>
    return createWindow(0, 0, width, height);
     bc5:	8b 45 10             	mov    0x10(%ebp),%eax
     bc8:	89 44 24 0c          	mov    %eax,0xc(%esp)
     bcc:	8b 45 0c             	mov    0xc(%ebp),%eax
     bcf:	89 44 24 08          	mov    %eax,0x8(%esp)
     bd3:	c7 44 24 04 00 00 00 	movl   $0x0,0x4(%esp)
     bda:	00 
     bdb:	c7 04 24 00 00 00 00 	movl   $0x0,(%esp)
     be2:	e8 b4 1e 00 00       	call   2a9b <createWindow>
}
     be7:	c9                   	leave  
     be8:	c3                   	ret    

00000be9 <free_context>:

void free_context(struct Context* context_ptr, int winid)
{
     be9:	55                   	push   %ebp
     bea:	89 e5                	mov    %esp,%ebp
     bec:	83 ec 18             	sub    $0x18,%esp
    free(context_ptr->addr);
     bef:	8b 45 08             	mov    0x8(%ebp),%eax
     bf2:	8b 00                	mov    (%eax),%eax
     bf4:	89 04 24             	mov    %eax,(%esp)
     bf7:	e8 92 21 00 00       	call   2d8e <free>
    freeASCII();
     bfc:	e8 c6 02 00 00       	call   ec7 <freeASCII>
    freeGBK();
     c01:	e8 7e 03 00 00       	call   f84 <freeGBK>
    destroyWindow(winid);
     c06:	8b 45 0c             	mov    0xc(%ebp),%eax
     c09:	89 04 24             	mov    %eax,(%esp)
     c0c:	e8 92 1e 00 00       	call   2aa3 <destroyWindow>
}
     c11:	c9                   	leave  
     c12:	c3                   	ret    

00000c13 <draw_point>:
*             then do nothing!
*/

void
draw_point(struct Context c, unsigned int x, unsigned int y, unsigned short color)
{
     c13:	55                   	push   %ebp
     c14:	89 e5                	mov    %esp,%ebp
     c16:	83 ec 04             	sub    $0x4,%esp
     c19:	8b 45 1c             	mov    0x1c(%ebp),%eax
     c1c:	66 89 45 fc          	mov    %ax,-0x4(%ebp)
  if(x >= c.width)
     c20:	8b 45 0c             	mov    0xc(%ebp),%eax
     c23:	3b 45 14             	cmp    0x14(%ebp),%eax
     c26:	77 02                	ja     c2a <draw_point+0x17>
    return;
     c28:	eb 26                	jmp    c50 <draw_point+0x3d>
  if(y >= c.height)
     c2a:	8b 45 10             	mov    0x10(%ebp),%eax
     c2d:	3b 45 18             	cmp    0x18(%ebp),%eax
     c30:	77 02                	ja     c34 <draw_point+0x21>
    return;
     c32:	eb 1c                	jmp    c50 <draw_point+0x3d>
  c.addr[y*c.width+x] = color;
     c34:	8b 55 08             	mov    0x8(%ebp),%edx
     c37:	8b 45 0c             	mov    0xc(%ebp),%eax
     c3a:	0f af 45 18          	imul   0x18(%ebp),%eax
     c3e:	89 c1                	mov    %eax,%ecx
     c40:	8b 45 14             	mov    0x14(%ebp),%eax
     c43:	01 c8                	add    %ecx,%eax
     c45:	01 c0                	add    %eax,%eax
     c47:	01 c2                	add    %eax,%edx
     c49:	0f b7 45 fc          	movzwl -0x4(%ebp),%eax
     c4d:	66 89 02             	mov    %ax,(%edx)
}
     c50:	c9                   	leave  
     c51:	c3                   	ret    

00000c52 <fill_rect>:
/*
*fill_rect: set a rect area with a certain color
*/
void
fill_rect(struct Context c, unsigned int bx, unsigned int by, unsigned int width, unsigned int height, unsigned short color)
{
     c52:	55                   	push   %ebp
     c53:	89 e5                	mov    %esp,%ebp
     c55:	83 ec 2c             	sub    $0x2c,%esp
     c58:	8b 45 24             	mov    0x24(%ebp),%eax
     c5b:	66 89 45 ec          	mov    %ax,-0x14(%ebp)
	int x, y;
	int mx = c.width < bx + width ? c.width : bx + width;
     c5f:	8b 45 1c             	mov    0x1c(%ebp),%eax
     c62:	8b 55 14             	mov    0x14(%ebp),%edx
     c65:	01 c2                	add    %eax,%edx
     c67:	8b 45 0c             	mov    0xc(%ebp),%eax
     c6a:	39 c2                	cmp    %eax,%edx
     c6c:	0f 46 c2             	cmovbe %edx,%eax
     c6f:	89 45 f4             	mov    %eax,-0xc(%ebp)
	int my = c.height < by + height ? c.height : by + height;
     c72:	8b 45 20             	mov    0x20(%ebp),%eax
     c75:	8b 55 18             	mov    0x18(%ebp),%edx
     c78:	01 c2                	add    %eax,%edx
     c7a:	8b 45 10             	mov    0x10(%ebp),%eax
     c7d:	39 c2                	cmp    %eax,%edx
     c7f:	0f 46 c2             	cmovbe %edx,%eax
     c82:	89 45 f0             	mov    %eax,-0x10(%ebp)
	for (y = by; y < my; y++)
     c85:	8b 45 18             	mov    0x18(%ebp),%eax
     c88:	89 45 f8             	mov    %eax,-0x8(%ebp)
     c8b:	eb 47                	jmp    cd4 <fill_rect+0x82>
	{
		for (x = bx; x < mx; x++)
     c8d:	8b 45 14             	mov    0x14(%ebp),%eax
     c90:	89 45 fc             	mov    %eax,-0x4(%ebp)
     c93:	eb 33                	jmp    cc8 <fill_rect+0x76>
		{
			draw_point(c, x, y, color);
     c95:	0f b7 4d ec          	movzwl -0x14(%ebp),%ecx
     c99:	8b 55 f8             	mov    -0x8(%ebp),%edx
     c9c:	8b 45 fc             	mov    -0x4(%ebp),%eax
     c9f:	89 4c 24 14          	mov    %ecx,0x14(%esp)
     ca3:	89 54 24 10          	mov    %edx,0x10(%esp)
     ca7:	89 44 24 0c          	mov    %eax,0xc(%esp)
     cab:	8b 45 08             	mov    0x8(%ebp),%eax
     cae:	89 04 24             	mov    %eax,(%esp)
     cb1:	8b 45 0c             	mov    0xc(%ebp),%eax
     cb4:	89 44 24 04          	mov    %eax,0x4(%esp)
     cb8:	8b 45 10             	mov    0x10(%ebp),%eax
     cbb:	89 44 24 08          	mov    %eax,0x8(%esp)
     cbf:	e8 4f ff ff ff       	call   c13 <draw_point>
	int x, y;
	int mx = c.width < bx + width ? c.width : bx + width;
	int my = c.height < by + height ? c.height : by + height;
	for (y = by; y < my; y++)
	{
		for (x = bx; x < mx; x++)
     cc4:	83 45 fc 01          	addl   $0x1,-0x4(%ebp)
     cc8:	8b 45 fc             	mov    -0x4(%ebp),%eax
     ccb:	3b 45 f4             	cmp    -0xc(%ebp),%eax
     cce:	7c c5                	jl     c95 <fill_rect+0x43>
fill_rect(struct Context c, unsigned int bx, unsigned int by, unsigned int width, unsigned int height, unsigned short color)
{
	int x, y;
	int mx = c.width < bx + width ? c.width : bx + width;
	int my = c.height < by + height ? c.height : by + height;
	for (y = by; y < my; y++)
     cd0:	83 45 f8 01          	addl   $0x1,-0x8(%ebp)
     cd4:	8b 45 f8             	mov    -0x8(%ebp),%eax
     cd7:	3b 45 f0             	cmp    -0x10(%ebp),%eax
     cda:	7c b1                	jl     c8d <fill_rect+0x3b>
		for (x = bx; x < mx; x++)
		{
			draw_point(c, x, y, color);
		}
	}
}
     cdc:	c9                   	leave  
     cdd:	c3                   	ret    

00000cde <printBinary>:

void printBinary(char c)
{
     cde:	55                   	push   %ebp
     cdf:	89 e5                	mov    %esp,%ebp
     ce1:	83 ec 28             	sub    $0x28,%esp
     ce4:	8b 45 08             	mov    0x8(%ebp),%eax
     ce7:	88 45 e4             	mov    %al,-0x1c(%ebp)
	int i;
	for (i = 0; i < 8; i++)
     cea:	c7 45 f4 00 00 00 00 	movl   $0x0,-0xc(%ebp)
     cf1:	eb 44                	jmp    d37 <printBinary+0x59>
	{
		if(((c << i) & 0x80) != 0)
     cf3:	0f be 55 e4          	movsbl -0x1c(%ebp),%edx
     cf7:	8b 45 f4             	mov    -0xc(%ebp),%eax
     cfa:	89 c1                	mov    %eax,%ecx
     cfc:	d3 e2                	shl    %cl,%edx
     cfe:	89 d0                	mov    %edx,%eax
     d00:	25 80 00 00 00       	and    $0x80,%eax
     d05:	85 c0                	test   %eax,%eax
     d07:	74 16                	je     d1f <printBinary+0x41>
		{
			printf(0, "1");
     d09:	c7 44 24 04 d4 92 00 	movl   $0x92d4,0x4(%esp)
     d10:	00 
     d11:	c7 04 24 00 00 00 00 	movl   $0x0,(%esp)
     d18:	e8 be 1e 00 00       	call   2bdb <printf>
     d1d:	eb 14                	jmp    d33 <printBinary+0x55>
		}
		else
		{
			printf(0, "0");
     d1f:	c7 44 24 04 d6 92 00 	movl   $0x92d6,0x4(%esp)
     d26:	00 
     d27:	c7 04 24 00 00 00 00 	movl   $0x0,(%esp)
     d2e:	e8 a8 1e 00 00       	call   2bdb <printf>
}

void printBinary(char c)
{
	int i;
	for (i = 0; i < 8; i++)
     d33:	83 45 f4 01          	addl   $0x1,-0xc(%ebp)
     d37:	83 7d f4 07          	cmpl   $0x7,-0xc(%ebp)
     d3b:	7e b6                	jle    cf3 <printBinary+0x15>
		{
			printf(0, "0");
		}
	}

	printf(0, "\n");
     d3d:	c7 44 24 04 d8 92 00 	movl   $0x92d8,0x4(%esp)
     d44:	00 
     d45:	c7 04 24 00 00 00 00 	movl   $0x0,(%esp)
     d4c:	e8 8a 1e 00 00       	call   2bdb <printf>
}
     d51:	c9                   	leave  
     d52:	c3                   	ret    

00000d53 <initializeASCII>:
char buf[512];
//hankaku是一个数组，将hankaku.txt文件中的每一行转化成一个8位整数（unsigned short）
//每16个整数可以代表一个字符
unsigned char *hankaku;
void initializeASCII()
{
     d53:	55                   	push   %ebp
     d54:	89 e5                	mov    %esp,%ebp
     d56:	56                   	push   %esi
     d57:	53                   	push   %ebx
     d58:	83 ec 30             	sub    $0x30,%esp

	int fd, n, i;
	int x, y;
	printf(0,"initialzing ASCII\n");
     d5b:	c7 44 24 04 da 92 00 	movl   $0x92da,0x4(%esp)
     d62:	00 
     d63:	c7 04 24 00 00 00 00 	movl   $0x0,(%esp)
     d6a:	e8 6c 1e 00 00       	call   2bdb <printf>
	//打开hankaku.txt文件
	if((fd = open(HANKAKU, 0)) < 0){
     d6f:	c7 44 24 04 00 00 00 	movl   $0x0,0x4(%esp)
     d76:	00 
     d77:	c7 04 24 ed 92 00 00 	movl   $0x92ed,(%esp)
     d7e:	e8 b0 1c 00 00       	call   2a33 <open>
     d83:	89 45 e8             	mov    %eax,-0x18(%ebp)
     d86:	83 7d e8 00          	cmpl   $0x0,-0x18(%ebp)
     d8a:	79 21                	jns    dad <initializeASCII+0x5a>
	  printf(0,"cannot open %s\n", HANKAKU);
     d8c:	c7 44 24 08 ed 92 00 	movl   $0x92ed,0x8(%esp)
     d93:	00 
     d94:	c7 44 24 04 f9 92 00 	movl   $0x92f9,0x4(%esp)
     d9b:	00 
     d9c:	c7 04 24 00 00 00 00 	movl   $0x0,(%esp)
     da3:	e8 33 1e 00 00       	call   2bdb <printf>
	  return;
     da8:	e9 13 01 00 00       	jmp    ec0 <initializeASCII+0x16d>
	}
	//申请hankaku数组
	hankaku = malloc(ASCII_NUM*ASCII_HEIGHT);
     dad:	c7 04 24 00 10 00 00 	movl   $0x1000,(%esp)
     db4:	e8 0e 21 00 00       	call   2ec7 <malloc>
     db9:	a3 a0 ff 00 00       	mov    %eax,0xffa0
	for (i = 0; i < ASCII_NUM; i++)
     dbe:	c7 45 f4 00 00 00 00 	movl   $0x0,-0xc(%ebp)
     dc5:	eb 12                	jmp    dd9 <initializeASCII+0x86>
	{
		hankaku[i] = 0;
     dc7:	8b 15 a0 ff 00 00    	mov    0xffa0,%edx
     dcd:	8b 45 f4             	mov    -0xc(%ebp),%eax
     dd0:	01 d0                	add    %edx,%eax
     dd2:	c6 00 00             	movb   $0x0,(%eax)
	  printf(0,"cannot open %s\n", HANKAKU);
	  return;
	}
	//申请hankaku数组
	hankaku = malloc(ASCII_NUM*ASCII_HEIGHT);
	for (i = 0; i < ASCII_NUM; i++)
     dd5:	83 45 f4 01          	addl   $0x1,-0xc(%ebp)
     dd9:	81 7d f4 ff 00 00 00 	cmpl   $0xff,-0xc(%ebp)
     de0:	7e e5                	jle    dc7 <initializeASCII+0x74>

	//不断读取文件，如果读到的字符是“*/."，就按顺序记录到hankaku数组中
	//y表示当前记录到第几行（对应于hankaku数组里的第几个数），x表示当前记录到第几列
	//如果当前字符是"*",则对应第y个数第x位置为1
	//每当x == ASCII_WIDTH，x重新置为0, y++
	x = 0;
     de2:	c7 45 f0 00 00 00 00 	movl   $0x0,-0x10(%ebp)
	y = 0;
     de9:	c7 45 ec 00 00 00 00 	movl   $0x0,-0x14(%ebp)
	while((n = read(fd, buf, sizeof(buf))) > 0)
     df0:	e9 84 00 00 00       	jmp    e79 <initializeASCII+0x126>
	{
		for (i = 0; i < n; i++){
     df5:	c7 45 f4 00 00 00 00 	movl   $0x0,-0xc(%ebp)
     dfc:	eb 73                	jmp    e71 <initializeASCII+0x11e>
			//printf(0,"%c, %d", buf[i], i);
			if (buf[i] == '*' || buf[i] == '.')
     dfe:	8b 45 f4             	mov    -0xc(%ebp),%eax
     e01:	05 c0 ff 00 00       	add    $0xffc0,%eax
     e06:	0f b6 00             	movzbl (%eax),%eax
     e09:	3c 2a                	cmp    $0x2a,%al
     e0b:	74 0f                	je     e1c <initializeASCII+0xc9>
     e0d:	8b 45 f4             	mov    -0xc(%ebp),%eax
     e10:	05 c0 ff 00 00       	add    $0xffc0,%eax
     e15:	0f b6 00             	movzbl (%eax),%eax
     e18:	3c 2e                	cmp    $0x2e,%al
     e1a:	75 51                	jne    e6d <initializeASCII+0x11a>
			{
				if (buf[i] == '*')
     e1c:	8b 45 f4             	mov    -0xc(%ebp),%eax
     e1f:	05 c0 ff 00 00       	add    $0xffc0,%eax
     e24:	0f b6 00             	movzbl (%eax),%eax
     e27:	3c 2a                	cmp    $0x2a,%al
     e29:	75 2d                	jne    e58 <initializeASCII+0x105>
				{
					hankaku[y] |= (0x80 >> x);
     e2b:	8b 15 a0 ff 00 00    	mov    0xffa0,%edx
     e31:	8b 45 ec             	mov    -0x14(%ebp),%eax
     e34:	01 c2                	add    %eax,%edx
     e36:	8b 0d a0 ff 00 00    	mov    0xffa0,%ecx
     e3c:	8b 45 ec             	mov    -0x14(%ebp),%eax
     e3f:	01 c8                	add    %ecx,%eax
     e41:	0f b6 00             	movzbl (%eax),%eax
     e44:	89 c3                	mov    %eax,%ebx
     e46:	8b 45 f0             	mov    -0x10(%ebp),%eax
     e49:	be 80 00 00 00       	mov    $0x80,%esi
     e4e:	89 c1                	mov    %eax,%ecx
     e50:	d3 fe                	sar    %cl,%esi
     e52:	89 f0                	mov    %esi,%eax
     e54:	09 d8                	or     %ebx,%eax
     e56:	88 02                	mov    %al,(%edx)
				}
				x ++;
     e58:	83 45 f0 01          	addl   $0x1,-0x10(%ebp)
				if (x >= ASCII_WIDTH)
     e5c:	83 7d f0 07          	cmpl   $0x7,-0x10(%ebp)
     e60:	7e 0b                	jle    e6d <initializeASCII+0x11a>
				{
					x = 0;
     e62:	c7 45 f0 00 00 00 00 	movl   $0x0,-0x10(%ebp)
					y ++;
     e69:	83 45 ec 01          	addl   $0x1,-0x14(%ebp)
	//每当x == ASCII_WIDTH，x重新置为0, y++
	x = 0;
	y = 0;
	while((n = read(fd, buf, sizeof(buf))) > 0)
	{
		for (i = 0; i < n; i++){
     e6d:	83 45 f4 01          	addl   $0x1,-0xc(%ebp)
     e71:	8b 45 f4             	mov    -0xc(%ebp),%eax
     e74:	3b 45 e4             	cmp    -0x1c(%ebp),%eax
     e77:	7c 85                	jl     dfe <initializeASCII+0xab>
	//y表示当前记录到第几行（对应于hankaku数组里的第几个数），x表示当前记录到第几列
	//如果当前字符是"*",则对应第y个数第x位置为1
	//每当x == ASCII_WIDTH，x重新置为0, y++
	x = 0;
	y = 0;
	while((n = read(fd, buf, sizeof(buf))) > 0)
     e79:	c7 44 24 08 00 02 00 	movl   $0x200,0x8(%esp)
     e80:	00 
     e81:	c7 44 24 04 c0 ff 00 	movl   $0xffc0,0x4(%esp)
     e88:	00 
     e89:	8b 45 e8             	mov    -0x18(%ebp),%eax
     e8c:	89 04 24             	mov    %eax,(%esp)
     e8f:	e8 77 1b 00 00       	call   2a0b <read>
     e94:	89 45 e4             	mov    %eax,-0x1c(%ebp)
     e97:	83 7d e4 00          	cmpl   $0x0,-0x1c(%ebp)
     e9b:	0f 8f 54 ff ff ff    	jg     df5 <initializeASCII+0xa2>

//	for (i = 0; i < ASCII_NUM * ASCII_HEIGHT; i++)
//	{
//		printBinary(hankaku[i]);
//	}
	printf(0,"initialzing ASCII complete!\n");
     ea1:	c7 44 24 04 09 93 00 	movl   $0x9309,0x4(%esp)
     ea8:	00 
     ea9:	c7 04 24 00 00 00 00 	movl   $0x0,(%esp)
     eb0:	e8 26 1d 00 00       	call   2bdb <printf>
	close(fd);
     eb5:	8b 45 e8             	mov    -0x18(%ebp),%eax
     eb8:	89 04 24             	mov    %eax,(%esp)
     ebb:	e8 5b 1b 00 00       	call   2a1b <close>
}
     ec0:	83 c4 30             	add    $0x30,%esp
     ec3:	5b                   	pop    %ebx
     ec4:	5e                   	pop    %esi
     ec5:	5d                   	pop    %ebp
     ec6:	c3                   	ret    

00000ec7 <freeASCII>:

void freeASCII(){
     ec7:	55                   	push   %ebp
     ec8:	89 e5                	mov    %esp,%ebp
     eca:	83 ec 18             	sub    $0x18,%esp
	free(hankaku);
     ecd:	a1 a0 ff 00 00       	mov    0xffa0,%eax
     ed2:	89 04 24             	mov    %eax,(%esp)
     ed5:	e8 b4 1e 00 00       	call   2d8e <free>
}
     eda:	c9                   	leave  
     edb:	c3                   	ret    

00000edc <initializeGBK>:

struct File_Node fontFile;
void initializeGBK(){
     edc:	55                   	push   %ebp
     edd:	89 e5                	mov    %esp,%ebp
     edf:	83 ec 28             	sub    $0x28,%esp
	int fd;
	printf(0,"initialzing gbk\n");
     ee2:	c7 44 24 04 26 93 00 	movl   $0x9326,0x4(%esp)
     ee9:	00 
     eea:	c7 04 24 00 00 00 00 	movl   $0x0,(%esp)
     ef1:	e8 e5 1c 00 00       	call   2bdb <printf>
	if((fd = open(HZK16, 0)) < 0){
     ef6:	c7 44 24 04 00 00 00 	movl   $0x0,0x4(%esp)
     efd:	00 
     efe:	c7 04 24 37 93 00 00 	movl   $0x9337,(%esp)
     f05:	e8 29 1b 00 00       	call   2a33 <open>
     f0a:	89 45 f4             	mov    %eax,-0xc(%ebp)
     f0d:	83 7d f4 00          	cmpl   $0x0,-0xc(%ebp)
     f11:	79 1e                	jns    f31 <initializeGBK+0x55>
		printf(0,"cannot open %s\n", HZK16);
     f13:	c7 44 24 08 37 93 00 	movl   $0x9337,0x8(%esp)
     f1a:	00 
     f1b:	c7 44 24 04 f9 92 00 	movl   $0x92f9,0x4(%esp)
     f22:	00 
     f23:	c7 04 24 00 00 00 00 	movl   $0x0,(%esp)
     f2a:	e8 ac 1c 00 00       	call   2bdb <printf>
		return;
     f2f:	eb 51                	jmp    f82 <initializeGBK+0xa6>
	}
	fontFile.buf = malloc(27000*sizeof(unsigned char));
     f31:	c7 04 24 78 69 00 00 	movl   $0x6978,(%esp)
     f38:	e8 8a 1f 00 00       	call   2ec7 <malloc>
     f3d:	a3 a4 ff 00 00       	mov    %eax,0xffa4
	fontFile.size = read(fd, fontFile.buf, 27000);
     f42:	a1 a4 ff 00 00       	mov    0xffa4,%eax
     f47:	c7 44 24 08 78 69 00 	movl   $0x6978,0x8(%esp)
     f4e:	00 
     f4f:	89 44 24 04          	mov    %eax,0x4(%esp)
     f53:	8b 45 f4             	mov    -0xc(%ebp),%eax
     f56:	89 04 24             	mov    %eax,(%esp)
     f59:	e8 ad 1a 00 00       	call   2a0b <read>
     f5e:	a3 a8 ff 00 00       	mov    %eax,0xffa8
	printf(0,"initialzing gbk complete!\n");
     f63:	c7 44 24 04 41 93 00 	movl   $0x9341,0x4(%esp)
     f6a:	00 
     f6b:	c7 04 24 00 00 00 00 	movl   $0x0,(%esp)
     f72:	e8 64 1c 00 00       	call   2bdb <printf>
	close(fd);
     f77:	8b 45 f4             	mov    -0xc(%ebp),%eax
     f7a:	89 04 24             	mov    %eax,(%esp)
     f7d:	e8 99 1a 00 00       	call   2a1b <close>
}
     f82:	c9                   	leave  
     f83:	c3                   	ret    

00000f84 <freeGBK>:

void freeGBK(){
     f84:	55                   	push   %ebp
     f85:	89 e5                	mov    %esp,%ebp
     f87:	83 ec 18             	sub    $0x18,%esp
	free(fontFile.buf);
     f8a:	a1 a4 ff 00 00       	mov    0xffa4,%eax
     f8f:	89 04 24             	mov    %eax,(%esp)
     f92:	e8 f7 1d 00 00       	call   2d8e <free>
}
     f97:	c9                   	leave  
     f98:	c3                   	ret    

00000f99 <put_ascii>:

void put_ascii(struct Context c, unsigned char ascii, unsigned short colorNum, int x, int y)
{
     f99:	55                   	push   %ebp
     f9a:	89 e5                	mov    %esp,%ebp
     f9c:	53                   	push   %ebx
     f9d:	83 ec 30             	sub    $0x30,%esp
     fa0:	8b 55 14             	mov    0x14(%ebp),%edx
     fa3:	8b 45 18             	mov    0x18(%ebp),%eax
     fa6:	88 55 e8             	mov    %dl,-0x18(%ebp)
     fa9:	66 89 45 e4          	mov    %ax,-0x1c(%ebp)
	int tmpX, tmpY;
	//printf(0, "put ascii: %c, color: %d\n", ascii, colorNum);
	for(tmpY = y; tmpY < y + 16; tmpY++) {
     fad:	8b 45 20             	mov    0x20(%ebp),%eax
     fb0:	89 45 f4             	mov    %eax,-0xc(%ebp)
     fb3:	eb 7f                	jmp    1034 <put_ascii+0x9b>
		for(tmpX = 0; tmpX < 8; tmpX++) {
     fb5:	c7 45 f8 00 00 00 00 	movl   $0x0,-0x8(%ebp)
     fbc:	eb 6c                	jmp    102a <put_ascii+0x91>
			if((((hankaku + (ascii * 16))[tmpY - y] << tmpX) & 0x80) == 0x80) {
     fbe:	a1 a0 ff 00 00       	mov    0xffa0,%eax
     fc3:	0f b6 55 e8          	movzbl -0x18(%ebp),%edx
     fc7:	c1 e2 04             	shl    $0x4,%edx
     fca:	89 d1                	mov    %edx,%ecx
     fcc:	8b 55 20             	mov    0x20(%ebp),%edx
     fcf:	8b 5d f4             	mov    -0xc(%ebp),%ebx
     fd2:	29 d3                	sub    %edx,%ebx
     fd4:	89 da                	mov    %ebx,%edx
     fd6:	01 ca                	add    %ecx,%edx
     fd8:	01 d0                	add    %edx,%eax
     fda:	0f b6 00             	movzbl (%eax),%eax
     fdd:	0f b6 d0             	movzbl %al,%edx
     fe0:	8b 45 f8             	mov    -0x8(%ebp),%eax
     fe3:	89 c1                	mov    %eax,%ecx
     fe5:	d3 e2                	shl    %cl,%edx
     fe7:	89 d0                	mov    %edx,%eax
     fe9:	25 80 00 00 00       	and    $0x80,%eax
     fee:	85 c0                	test   %eax,%eax
     ff0:	74 34                	je     1026 <put_ascii+0x8d>
				//printf(0, "x: %d, y: %d\n", x + tmpX, tmpY);
				draw_point(c, x + tmpX, tmpY, colorNum);
     ff2:	0f b7 4d e4          	movzwl -0x1c(%ebp),%ecx
     ff6:	8b 55 f4             	mov    -0xc(%ebp),%edx
     ff9:	8b 45 f8             	mov    -0x8(%ebp),%eax
     ffc:	8b 5d 1c             	mov    0x1c(%ebp),%ebx
     fff:	01 d8                	add    %ebx,%eax
    1001:	89 4c 24 14          	mov    %ecx,0x14(%esp)
    1005:	89 54 24 10          	mov    %edx,0x10(%esp)
    1009:	89 44 24 0c          	mov    %eax,0xc(%esp)
    100d:	8b 45 08             	mov    0x8(%ebp),%eax
    1010:	89 04 24             	mov    %eax,(%esp)
    1013:	8b 45 0c             	mov    0xc(%ebp),%eax
    1016:	89 44 24 04          	mov    %eax,0x4(%esp)
    101a:	8b 45 10             	mov    0x10(%ebp),%eax
    101d:	89 44 24 08          	mov    %eax,0x8(%esp)
    1021:	e8 ed fb ff ff       	call   c13 <draw_point>
void put_ascii(struct Context c, unsigned char ascii, unsigned short colorNum, int x, int y)
{
	int tmpX, tmpY;
	//printf(0, "put ascii: %c, color: %d\n", ascii, colorNum);
	for(tmpY = y; tmpY < y + 16; tmpY++) {
		for(tmpX = 0; tmpX < 8; tmpX++) {
    1026:	83 45 f8 01          	addl   $0x1,-0x8(%ebp)
    102a:	83 7d f8 07          	cmpl   $0x7,-0x8(%ebp)
    102e:	7e 8e                	jle    fbe <put_ascii+0x25>

void put_ascii(struct Context c, unsigned char ascii, unsigned short colorNum, int x, int y)
{
	int tmpX, tmpY;
	//printf(0, "put ascii: %c, color: %d\n", ascii, colorNum);
	for(tmpY = y; tmpY < y + 16; tmpY++) {
    1030:	83 45 f4 01          	addl   $0x1,-0xc(%ebp)
    1034:	8b 45 20             	mov    0x20(%ebp),%eax
    1037:	83 c0 10             	add    $0x10,%eax
    103a:	3b 45 f4             	cmp    -0xc(%ebp),%eax
    103d:	0f 8f 72 ff ff ff    	jg     fb5 <put_ascii+0x1c>
				draw_point(c, x + tmpX, tmpY, colorNum);
				//sheet->buf[tmpY * sheet->width + x + tmpX] = colorNum;
			}
		}
	}
}
    1043:	83 c4 30             	add    $0x30,%esp
    1046:	5b                   	pop    %ebx
    1047:	5d                   	pop    %ebp
    1048:	c3                   	ret    

00001049 <put_gbk>:

void put_gbk(struct Context c, short gbk, unsigned short colorNum, int x, int y)
{
    1049:	55                   	push   %ebp
    104a:	89 e5                	mov    %esp,%ebp
    104c:	53                   	push   %ebx
    104d:	83 ec 34             	sub    $0x34,%esp
    1050:	8b 55 14             	mov    0x14(%ebp),%edx
    1053:	8b 45 18             	mov    0x18(%ebp),%eax
    1056:	66 89 55 e8          	mov    %dx,-0x18(%ebp)
    105a:	66 89 45 e4          	mov    %ax,-0x1c(%ebp)
	int tmpX, tmpY;
	unsigned int offset;
	unsigned char *hzk16Base;
	if((gbk & 0x00FF) >= 0xA1 && ((gbk >> 8) & 0x00FF) >= 0xA1) {
    105e:	0f bf 45 e8          	movswl -0x18(%ebp),%eax
    1062:	0f b6 c0             	movzbl %al,%eax
    1065:	3d a0 00 00 00       	cmp    $0xa0,%eax
    106a:	0f 8e 40 01 00 00    	jle    11b0 <put_gbk+0x167>
    1070:	0f b7 45 e8          	movzwl -0x18(%ebp),%eax
    1074:	66 c1 f8 08          	sar    $0x8,%ax
    1078:	98                   	cwtl   
    1079:	0f b6 c0             	movzbl %al,%eax
    107c:	3d a0 00 00 00       	cmp    $0xa0,%eax
    1081:	0f 8e 29 01 00 00    	jle    11b0 <put_gbk+0x167>
		hzk16Base = fontFile.buf;
    1087:	a1 a4 ff 00 00       	mov    0xffa4,%eax
    108c:	89 45 ec             	mov    %eax,-0x14(%ebp)
		offset = (((gbk & 0x00FF) - 0xa1) * 94 + (((gbk >> 8) & 0x00FF) - 0xa1)) * 32;
    108f:	0f bf 45 e8          	movswl -0x18(%ebp),%eax
    1093:	0f b6 c0             	movzbl %al,%eax
    1096:	2d a1 00 00 00       	sub    $0xa1,%eax
    109b:	6b c0 5e             	imul   $0x5e,%eax,%eax
    109e:	0f b7 55 e8          	movzwl -0x18(%ebp),%edx
    10a2:	66 c1 fa 08          	sar    $0x8,%dx
    10a6:	0f bf d2             	movswl %dx,%edx
    10a9:	0f b6 d2             	movzbl %dl,%edx
    10ac:	81 ea a1 00 00 00    	sub    $0xa1,%edx
    10b2:	01 d0                	add    %edx,%eax
    10b4:	c1 e0 05             	shl    $0x5,%eax
    10b7:	89 45 f0             	mov    %eax,-0x10(%ebp)

		for(tmpY = y; tmpY < 16 + y; tmpY++) {
    10ba:	8b 45 20             	mov    0x20(%ebp),%eax
    10bd:	89 45 f4             	mov    %eax,-0xc(%ebp)
    10c0:	e9 da 00 00 00       	jmp    119f <put_gbk+0x156>
			for(tmpX = 0; tmpX < 8; tmpX++) {
    10c5:	c7 45 f8 00 00 00 00 	movl   $0x0,-0x8(%ebp)
    10cc:	eb 58                	jmp    1126 <put_gbk+0xdd>
				if(((hzk16Base[offset] << tmpX) & 0x80) == 0x80) {
    10ce:	8b 45 f0             	mov    -0x10(%ebp),%eax
    10d1:	8b 55 ec             	mov    -0x14(%ebp),%edx
    10d4:	01 d0                	add    %edx,%eax
    10d6:	0f b6 00             	movzbl (%eax),%eax
    10d9:	0f b6 d0             	movzbl %al,%edx
    10dc:	8b 45 f8             	mov    -0x8(%ebp),%eax
    10df:	89 c1                	mov    %eax,%ecx
    10e1:	d3 e2                	shl    %cl,%edx
    10e3:	89 d0                	mov    %edx,%eax
    10e5:	25 80 00 00 00       	and    $0x80,%eax
    10ea:	85 c0                	test   %eax,%eax
    10ec:	74 34                	je     1122 <put_gbk+0xd9>
					draw_point(c, x + tmpX, tmpY, colorNum);
    10ee:	0f b7 4d e4          	movzwl -0x1c(%ebp),%ecx
    10f2:	8b 55 f4             	mov    -0xc(%ebp),%edx
    10f5:	8b 45 f8             	mov    -0x8(%ebp),%eax
    10f8:	8b 5d 1c             	mov    0x1c(%ebp),%ebx
    10fb:	01 d8                	add    %ebx,%eax
    10fd:	89 4c 24 14          	mov    %ecx,0x14(%esp)
    1101:	89 54 24 10          	mov    %edx,0x10(%esp)
    1105:	89 44 24 0c          	mov    %eax,0xc(%esp)
    1109:	8b 45 08             	mov    0x8(%ebp),%eax
    110c:	89 04 24             	mov    %eax,(%esp)
    110f:	8b 45 0c             	mov    0xc(%ebp),%eax
    1112:	89 44 24 04          	mov    %eax,0x4(%esp)
    1116:	8b 45 10             	mov    0x10(%ebp),%eax
    1119:	89 44 24 08          	mov    %eax,0x8(%esp)
    111d:	e8 f1 fa ff ff       	call   c13 <draw_point>
	if((gbk & 0x00FF) >= 0xA1 && ((gbk >> 8) & 0x00FF) >= 0xA1) {
		hzk16Base = fontFile.buf;
		offset = (((gbk & 0x00FF) - 0xa1) * 94 + (((gbk >> 8) & 0x00FF) - 0xa1)) * 32;

		for(tmpY = y; tmpY < 16 + y; tmpY++) {
			for(tmpX = 0; tmpX < 8; tmpX++) {
    1122:	83 45 f8 01          	addl   $0x1,-0x8(%ebp)
    1126:	83 7d f8 07          	cmpl   $0x7,-0x8(%ebp)
    112a:	7e a2                	jle    10ce <put_gbk+0x85>
				if(((hzk16Base[offset] << tmpX) & 0x80) == 0x80) {
					draw_point(c, x + tmpX, tmpY, colorNum);
					//sheet->buf[tmpY * sheet->width + x + tmpX] = colorNum;
				}
			}
			offset++;
    112c:	83 45 f0 01          	addl   $0x1,-0x10(%ebp)
			for(tmpX = 0; tmpX < 8; tmpX++) {
    1130:	c7 45 f8 00 00 00 00 	movl   $0x0,-0x8(%ebp)
    1137:	eb 58                	jmp    1191 <put_gbk+0x148>
				if(((hzk16Base[offset] << tmpX) & 0x80) == 0x80) {
    1139:	8b 45 f0             	mov    -0x10(%ebp),%eax
    113c:	8b 55 ec             	mov    -0x14(%ebp),%edx
    113f:	01 d0                	add    %edx,%eax
    1141:	0f b6 00             	movzbl (%eax),%eax
    1144:	0f b6 d0             	movzbl %al,%edx
    1147:	8b 45 f8             	mov    -0x8(%ebp),%eax
    114a:	89 c1                	mov    %eax,%ecx
    114c:	d3 e2                	shl    %cl,%edx
    114e:	89 d0                	mov    %edx,%eax
    1150:	25 80 00 00 00       	and    $0x80,%eax
    1155:	85 c0                	test   %eax,%eax
    1157:	74 34                	je     118d <put_gbk+0x144>
					draw_point(c, x + tmpX, tmpY, colorNum);
    1159:	0f b7 4d e4          	movzwl -0x1c(%ebp),%ecx
    115d:	8b 55 f4             	mov    -0xc(%ebp),%edx
    1160:	8b 45 f8             	mov    -0x8(%ebp),%eax
    1163:	8b 5d 1c             	mov    0x1c(%ebp),%ebx
    1166:	01 d8                	add    %ebx,%eax
    1168:	89 4c 24 14          	mov    %ecx,0x14(%esp)
    116c:	89 54 24 10          	mov    %edx,0x10(%esp)
    1170:	89 44 24 0c          	mov    %eax,0xc(%esp)
    1174:	8b 45 08             	mov    0x8(%ebp),%eax
    1177:	89 04 24             	mov    %eax,(%esp)
    117a:	8b 45 0c             	mov    0xc(%ebp),%eax
    117d:	89 44 24 04          	mov    %eax,0x4(%esp)
    1181:	8b 45 10             	mov    0x10(%ebp),%eax
    1184:	89 44 24 08          	mov    %eax,0x8(%esp)
    1188:	e8 86 fa ff ff       	call   c13 <draw_point>
					draw_point(c, x + tmpX, tmpY, colorNum);
					//sheet->buf[tmpY * sheet->width + x + tmpX] = colorNum;
				}
			}
			offset++;
			for(tmpX = 0; tmpX < 8; tmpX++) {
    118d:	83 45 f8 01          	addl   $0x1,-0x8(%ebp)
    1191:	83 7d f8 07          	cmpl   $0x7,-0x8(%ebp)
    1195:	7e a2                	jle    1139 <put_gbk+0xf0>
				if(((hzk16Base[offset] << tmpX) & 0x80) == 0x80) {
					draw_point(c, x + tmpX, tmpY, colorNum);
					//sheet->buf[tmpY * sheet->width + x + tmpX + 8] = colorNum;
				}
			}
			offset++;
    1197:	83 45 f0 01          	addl   $0x1,-0x10(%ebp)
	unsigned char *hzk16Base;
	if((gbk & 0x00FF) >= 0xA1 && ((gbk >> 8) & 0x00FF) >= 0xA1) {
		hzk16Base = fontFile.buf;
		offset = (((gbk & 0x00FF) - 0xa1) * 94 + (((gbk >> 8) & 0x00FF) - 0xa1)) * 32;

		for(tmpY = y; tmpY < 16 + y; tmpY++) {
    119b:	83 45 f4 01          	addl   $0x1,-0xc(%ebp)
    119f:	8b 45 20             	mov    0x20(%ebp),%eax
    11a2:	83 c0 10             	add    $0x10,%eax
    11a5:	3b 45 f4             	cmp    -0xc(%ebp),%eax
    11a8:	0f 8f 17 ff ff ff    	jg     10c5 <put_gbk+0x7c>
void put_gbk(struct Context c, short gbk, unsigned short colorNum, int x, int y)
{
	int tmpX, tmpY;
	unsigned int offset;
	unsigned char *hzk16Base;
	if((gbk & 0x00FF) >= 0xA1 && ((gbk >> 8) & 0x00FF) >= 0xA1) {
    11ae:	eb 7b                	jmp    122b <put_gbk+0x1e2>
			}
			offset++;
		}
	}
	else {
		put_ascii(c, (gbk & 0x00FF), colorNum, x, y);
    11b0:	0f b7 55 e4          	movzwl -0x1c(%ebp),%edx
    11b4:	0f b7 45 e8          	movzwl -0x18(%ebp),%eax
    11b8:	0f b6 c0             	movzbl %al,%eax
    11bb:	8b 4d 20             	mov    0x20(%ebp),%ecx
    11be:	89 4c 24 18          	mov    %ecx,0x18(%esp)
    11c2:	8b 4d 1c             	mov    0x1c(%ebp),%ecx
    11c5:	89 4c 24 14          	mov    %ecx,0x14(%esp)
    11c9:	89 54 24 10          	mov    %edx,0x10(%esp)
    11cd:	89 44 24 0c          	mov    %eax,0xc(%esp)
    11d1:	8b 45 08             	mov    0x8(%ebp),%eax
    11d4:	89 04 24             	mov    %eax,(%esp)
    11d7:	8b 45 0c             	mov    0xc(%ebp),%eax
    11da:	89 44 24 04          	mov    %eax,0x4(%esp)
    11de:	8b 45 10             	mov    0x10(%ebp),%eax
    11e1:	89 44 24 08          	mov    %eax,0x8(%esp)
    11e5:	e8 af fd ff ff       	call   f99 <put_ascii>
		put_ascii(c, ((gbk >> 8) & 0x00FF), colorNum, x + 8, y);
    11ea:	8b 45 1c             	mov    0x1c(%ebp),%eax
    11ed:	8d 58 08             	lea    0x8(%eax),%ebx
    11f0:	0f b7 55 e4          	movzwl -0x1c(%ebp),%edx
    11f4:	0f b7 45 e8          	movzwl -0x18(%ebp),%eax
    11f8:	66 c1 f8 08          	sar    $0x8,%ax
    11fc:	0f b6 c0             	movzbl %al,%eax
    11ff:	8b 4d 20             	mov    0x20(%ebp),%ecx
    1202:	89 4c 24 18          	mov    %ecx,0x18(%esp)
    1206:	89 5c 24 14          	mov    %ebx,0x14(%esp)
    120a:	89 54 24 10          	mov    %edx,0x10(%esp)
    120e:	89 44 24 0c          	mov    %eax,0xc(%esp)
    1212:	8b 45 08             	mov    0x8(%ebp),%eax
    1215:	89 04 24             	mov    %eax,(%esp)
    1218:	8b 45 0c             	mov    0xc(%ebp),%eax
    121b:	89 44 24 04          	mov    %eax,0x4(%esp)
    121f:	8b 45 10             	mov    0x10(%ebp),%eax
    1222:	89 44 24 08          	mov    %eax,0x8(%esp)
    1226:	e8 6e fd ff ff       	call   f99 <put_ascii>
	}
}
    122b:	83 c4 34             	add    $0x34,%esp
    122e:	5b                   	pop    %ebx
    122f:	5d                   	pop    %ebp
    1230:	c3                   	ret    

00001231 <puts_str>:

void puts_str(struct Context c, char *str, unsigned short colorNum, int x, int y)
{
    1231:	55                   	push   %ebp
    1232:	89 e5                	mov    %esp,%ebp
    1234:	83 ec 38             	sub    $0x38,%esp
    1237:	8b 45 18             	mov    0x18(%ebp),%eax
    123a:	66 89 45 e4          	mov    %ax,-0x1c(%ebp)
	//printf(0,"puts string : %s\n", str);
	int i = 0, xTmp;
    123e:	c7 45 f4 00 00 00 00 	movl   $0x0,-0xc(%ebp)
	short wStr;
	uint rowLetterCnt;

	rowLetterCnt = strlen(str);
    1245:	8b 45 14             	mov    0x14(%ebp),%eax
    1248:	89 04 24             	mov    %eax,(%esp)
    124b:	e8 cf 15 00 00       	call   281f <strlen>
    1250:	89 45 ec             	mov    %eax,-0x14(%ebp)
	for(i = 0, xTmp = x; i < rowLetterCnt;) {
    1253:	c7 45 f4 00 00 00 00 	movl   $0x0,-0xc(%ebp)
    125a:	8b 45 1c             	mov    0x1c(%ebp),%eax
    125d:	89 45 f0             	mov    %eax,-0x10(%ebp)
    1260:	eb 49                	jmp    12ab <puts_str+0x7a>
		if(str[i] < 0xA1) {
			put_ascii(c, str[i], colorNum, xTmp, y);
    1262:	0f b7 55 e4          	movzwl -0x1c(%ebp),%edx
    1266:	8b 4d f4             	mov    -0xc(%ebp),%ecx
    1269:	8b 45 14             	mov    0x14(%ebp),%eax
    126c:	01 c8                	add    %ecx,%eax
    126e:	0f b6 00             	movzbl (%eax),%eax
    1271:	0f b6 c0             	movzbl %al,%eax
    1274:	8b 4d 20             	mov    0x20(%ebp),%ecx
    1277:	89 4c 24 18          	mov    %ecx,0x18(%esp)
    127b:	8b 4d f0             	mov    -0x10(%ebp),%ecx
    127e:	89 4c 24 14          	mov    %ecx,0x14(%esp)
    1282:	89 54 24 10          	mov    %edx,0x10(%esp)
    1286:	89 44 24 0c          	mov    %eax,0xc(%esp)
    128a:	8b 45 08             	mov    0x8(%ebp),%eax
    128d:	89 04 24             	mov    %eax,(%esp)
    1290:	8b 45 0c             	mov    0xc(%ebp),%eax
    1293:	89 44 24 04          	mov    %eax,0x4(%esp)
    1297:	8b 45 10             	mov    0x10(%ebp),%eax
    129a:	89 44 24 08          	mov    %eax,0x8(%esp)
    129e:	e8 f6 fc ff ff       	call   f99 <put_ascii>
			xTmp += 8;
    12a3:	83 45 f0 08          	addl   $0x8,-0x10(%ebp)
			i++;
    12a7:	83 45 f4 01          	addl   $0x1,-0xc(%ebp)
	int i = 0, xTmp;
	short wStr;
	uint rowLetterCnt;

	rowLetterCnt = strlen(str);
	for(i = 0, xTmp = x; i < rowLetterCnt;) {
    12ab:	8b 45 f4             	mov    -0xc(%ebp),%eax
    12ae:	3b 45 ec             	cmp    -0x14(%ebp),%eax
    12b1:	72 af                	jb     1262 <puts_str+0x31>
			put_gbk(c, wStr, colorNum, xTmp, y);
			xTmp += 16;
			i += 2;
		}
	}
}
    12b3:	c9                   	leave  
    12b4:	c3                   	ret    

000012b5 <_RGB16BIT565>:

int _RGB16BIT565(int r,int g,int b){
    12b5:	55                   	push   %ebp
    12b6:	89 e5                	mov    %esp,%ebp
	return ((b / 8)+((g / 4)<<5)+((r / 8)<<11));
    12b8:	8b 45 10             	mov    0x10(%ebp),%eax
    12bb:	8d 50 07             	lea    0x7(%eax),%edx
    12be:	85 c0                	test   %eax,%eax
    12c0:	0f 48 c2             	cmovs  %edx,%eax
    12c3:	c1 f8 03             	sar    $0x3,%eax
    12c6:	89 c2                	mov    %eax,%edx
    12c8:	8b 45 0c             	mov    0xc(%ebp),%eax
    12cb:	8d 48 03             	lea    0x3(%eax),%ecx
    12ce:	85 c0                	test   %eax,%eax
    12d0:	0f 48 c1             	cmovs  %ecx,%eax
    12d3:	c1 f8 02             	sar    $0x2,%eax
    12d6:	c1 e0 05             	shl    $0x5,%eax
    12d9:	8d 0c 02             	lea    (%edx,%eax,1),%ecx
    12dc:	8b 45 08             	mov    0x8(%ebp),%eax
    12df:	8d 50 07             	lea    0x7(%eax),%edx
    12e2:	85 c0                	test   %eax,%eax
    12e4:	0f 48 c2             	cmovs  %edx,%eax
    12e7:	c1 f8 03             	sar    $0x3,%eax
    12ea:	c1 e0 0b             	shl    $0xb,%eax
    12ed:	01 c8                	add    %ecx,%eax
}
    12ef:	5d                   	pop    %ebp
    12f0:	c3                   	ret    

000012f1 <draw_picture>:

void draw_picture(Context c, PICNODE pic, int x, int y)
{
    12f1:	55                   	push   %ebp
    12f2:	89 e5                	mov    %esp,%ebp
    12f4:	53                   	push   %ebx
    12f5:	83 ec 28             	sub    $0x28,%esp
	int i, j;
	unsigned short color;
	RGBQUAD rgb;
	for (i = 0; i < pic.height; i++)
    12f8:	c7 45 f8 00 00 00 00 	movl   $0x0,-0x8(%ebp)
    12ff:	e9 b1 00 00 00       	jmp    13b5 <draw_picture+0xc4>
	{
		for (j = 0; j < pic.width; j++)
    1304:	c7 45 f4 00 00 00 00 	movl   $0x0,-0xc(%ebp)
    130b:	e9 95 00 00 00       	jmp    13a5 <draw_picture+0xb4>
		{
			rgb = pic.data[i*pic.width+j];
    1310:	8b 55 14             	mov    0x14(%ebp),%edx
    1313:	8b 45 18             	mov    0x18(%ebp),%eax
    1316:	0f af 45 f8          	imul   -0x8(%ebp),%eax
    131a:	89 c1                	mov    %eax,%ecx
    131c:	8b 45 f4             	mov    -0xc(%ebp),%eax
    131f:	01 c8                	add    %ecx,%eax
    1321:	c1 e0 02             	shl    $0x2,%eax
    1324:	01 d0                	add    %edx,%eax
    1326:	8b 00                	mov    (%eax),%eax
    1328:	89 45 ee             	mov    %eax,-0x12(%ebp)
			if (rgb.rgbReserved == 1) continue;
    132b:	0f b6 45 f1          	movzbl -0xf(%ebp),%eax
    132f:	3c 01                	cmp    $0x1,%al
    1331:	75 02                	jne    1335 <draw_picture+0x44>
    1333:	eb 6c                	jmp    13a1 <draw_picture+0xb0>
			color = (unsigned short)_RGB16BIT565(rgb.rgbRed, rgb.rgbGreen, rgb.rgbBlue);
    1335:	0f b6 45 ee          	movzbl -0x12(%ebp),%eax
    1339:	0f b6 c8             	movzbl %al,%ecx
    133c:	0f b6 45 ef          	movzbl -0x11(%ebp),%eax
    1340:	0f b6 d0             	movzbl %al,%edx
    1343:	0f b6 45 f0          	movzbl -0x10(%ebp),%eax
    1347:	0f b6 c0             	movzbl %al,%eax
    134a:	89 4c 24 08          	mov    %ecx,0x8(%esp)
    134e:	89 54 24 04          	mov    %edx,0x4(%esp)
    1352:	89 04 24             	mov    %eax,(%esp)
    1355:	e8 5b ff ff ff       	call   12b5 <_RGB16BIT565>
    135a:	66 89 45 f2          	mov    %ax,-0xe(%ebp)
			draw_point(c, j + x, pic.height - 1 - i + y, color);
    135e:	0f b7 4d f2          	movzwl -0xe(%ebp),%ecx
    1362:	8b 45 1c             	mov    0x1c(%ebp),%eax
    1365:	83 e8 01             	sub    $0x1,%eax
    1368:	2b 45 f8             	sub    -0x8(%ebp),%eax
    136b:	89 c2                	mov    %eax,%edx
    136d:	8b 45 24             	mov    0x24(%ebp),%eax
    1370:	01 d0                	add    %edx,%eax
    1372:	89 c2                	mov    %eax,%edx
    1374:	8b 45 20             	mov    0x20(%ebp),%eax
    1377:	8b 5d f4             	mov    -0xc(%ebp),%ebx
    137a:	01 d8                	add    %ebx,%eax
    137c:	89 4c 24 14          	mov    %ecx,0x14(%esp)
    1380:	89 54 24 10          	mov    %edx,0x10(%esp)
    1384:	89 44 24 0c          	mov    %eax,0xc(%esp)
    1388:	8b 45 08             	mov    0x8(%ebp),%eax
    138b:	89 04 24             	mov    %eax,(%esp)
    138e:	8b 45 0c             	mov    0xc(%ebp),%eax
    1391:	89 44 24 04          	mov    %eax,0x4(%esp)
    1395:	8b 45 10             	mov    0x10(%ebp),%eax
    1398:	89 44 24 08          	mov    %eax,0x8(%esp)
    139c:	e8 72 f8 ff ff       	call   c13 <draw_point>
	int i, j;
	unsigned short color;
	RGBQUAD rgb;
	for (i = 0; i < pic.height; i++)
	{
		for (j = 0; j < pic.width; j++)
    13a1:	83 45 f4 01          	addl   $0x1,-0xc(%ebp)
    13a5:	8b 45 18             	mov    0x18(%ebp),%eax
    13a8:	3b 45 f4             	cmp    -0xc(%ebp),%eax
    13ab:	0f 8f 5f ff ff ff    	jg     1310 <draw_picture+0x1f>
void draw_picture(Context c, PICNODE pic, int x, int y)
{
	int i, j;
	unsigned short color;
	RGBQUAD rgb;
	for (i = 0; i < pic.height; i++)
    13b1:	83 45 f8 01          	addl   $0x1,-0x8(%ebp)
    13b5:	8b 45 1c             	mov    0x1c(%ebp),%eax
    13b8:	3b 45 f8             	cmp    -0x8(%ebp),%eax
    13bb:	0f 8f 43 ff ff ff    	jg     1304 <draw_picture+0x13>
			if (rgb.rgbReserved == 1) continue;
			color = (unsigned short)_RGB16BIT565(rgb.rgbRed, rgb.rgbGreen, rgb.rgbBlue);
			draw_point(c, j + x, pic.height - 1 - i + y, color);
		}
	}
}
    13c1:	83 c4 28             	add    $0x28,%esp
    13c4:	5b                   	pop    %ebx
    13c5:	5d                   	pop    %ebp
    13c6:	c3                   	ret    

000013c7 <draw_line>:

void draw_line(Context c, int x0, int y0, int x1, int y1, unsigned short color)
{
    13c7:	55                   	push   %ebp
    13c8:	89 e5                	mov    %esp,%ebp
    13ca:	83 ec 3c             	sub    $0x3c,%esp
    13cd:	8b 45 24             	mov    0x24(%ebp),%eax
    13d0:	66 89 45 dc          	mov    %ax,-0x24(%ebp)
	int dx, dy, x, y, len, i;
	dx = x1 - x0;
    13d4:	8b 45 14             	mov    0x14(%ebp),%eax
    13d7:	8b 55 1c             	mov    0x1c(%ebp),%edx
    13da:	29 c2                	sub    %eax,%edx
    13dc:	89 d0                	mov    %edx,%eax
    13de:	89 45 fc             	mov    %eax,-0x4(%ebp)
	dy = y1 - y0;
    13e1:	8b 45 18             	mov    0x18(%ebp),%eax
    13e4:	8b 55 20             	mov    0x20(%ebp),%edx
    13e7:	29 c2                	sub    %eax,%edx
    13e9:	89 d0                	mov    %edx,%eax
    13eb:	89 45 f8             	mov    %eax,-0x8(%ebp)
	x = x0 << 10;
    13ee:	8b 45 14             	mov    0x14(%ebp),%eax
    13f1:	c1 e0 0a             	shl    $0xa,%eax
    13f4:	89 45 f4             	mov    %eax,-0xc(%ebp)
	y = y0 << 10;
    13f7:	8b 45 18             	mov    0x18(%ebp),%eax
    13fa:	c1 e0 0a             	shl    $0xa,%eax
    13fd:	89 45 f0             	mov    %eax,-0x10(%ebp)
	dx = (dx < 0) ? -dx : dx;
    1400:	8b 45 fc             	mov    -0x4(%ebp),%eax
    1403:	c1 f8 1f             	sar    $0x1f,%eax
    1406:	31 45 fc             	xor    %eax,-0x4(%ebp)
    1409:	29 45 fc             	sub    %eax,-0x4(%ebp)
	dy = (dy < 0) ? -dy : dy;
    140c:	8b 45 f8             	mov    -0x8(%ebp),%eax
    140f:	c1 f8 1f             	sar    $0x1f,%eax
    1412:	31 45 f8             	xor    %eax,-0x8(%ebp)
    1415:	29 45 f8             	sub    %eax,-0x8(%ebp)
	if(dx >= dy) {
    1418:	8b 45 fc             	mov    -0x4(%ebp),%eax
    141b:	3b 45 f8             	cmp    -0x8(%ebp),%eax
    141e:	7c 57                	jl     1477 <draw_line+0xb0>
		len = dx + 1;
    1420:	8b 45 fc             	mov    -0x4(%ebp),%eax
    1423:	83 c0 01             	add    $0x1,%eax
    1426:	89 45 ec             	mov    %eax,-0x14(%ebp)
		dx = (x1 > x0) ? 1024 : -1024;
    1429:	8b 45 1c             	mov    0x1c(%ebp),%eax
    142c:	3b 45 14             	cmp    0x14(%ebp),%eax
    142f:	7e 07                	jle    1438 <draw_line+0x71>
    1431:	b8 00 04 00 00       	mov    $0x400,%eax
    1436:	eb 05                	jmp    143d <draw_line+0x76>
    1438:	b8 00 fc ff ff       	mov    $0xfffffc00,%eax
    143d:	89 45 fc             	mov    %eax,-0x4(%ebp)
		dy = (y1 >= y0) ? (((y1 - y0 + 1) << 10) / len) : (((y1 - y0 - 1) << 10) / len);
    1440:	8b 45 20             	mov    0x20(%ebp),%eax
    1443:	3b 45 18             	cmp    0x18(%ebp),%eax
    1446:	7c 16                	jl     145e <draw_line+0x97>
    1448:	8b 45 18             	mov    0x18(%ebp),%eax
    144b:	8b 55 20             	mov    0x20(%ebp),%edx
    144e:	29 c2                	sub    %eax,%edx
    1450:	89 d0                	mov    %edx,%eax
    1452:	83 c0 01             	add    $0x1,%eax
    1455:	c1 e0 0a             	shl    $0xa,%eax
    1458:	99                   	cltd   
    1459:	f7 7d ec             	idivl  -0x14(%ebp)
    145c:	eb 14                	jmp    1472 <draw_line+0xab>
    145e:	8b 45 18             	mov    0x18(%ebp),%eax
    1461:	8b 55 20             	mov    0x20(%ebp),%edx
    1464:	29 c2                	sub    %eax,%edx
    1466:	89 d0                	mov    %edx,%eax
    1468:	83 e8 01             	sub    $0x1,%eax
    146b:	c1 e0 0a             	shl    $0xa,%eax
    146e:	99                   	cltd   
    146f:	f7 7d ec             	idivl  -0x14(%ebp)
    1472:	89 45 f8             	mov    %eax,-0x8(%ebp)
    1475:	eb 55                	jmp    14cc <draw_line+0x105>
	}
	else {
		len = dy + 1;
    1477:	8b 45 f8             	mov    -0x8(%ebp),%eax
    147a:	83 c0 01             	add    $0x1,%eax
    147d:	89 45 ec             	mov    %eax,-0x14(%ebp)
		dy = (y1 > y0) ? 1024 : -1024;
    1480:	8b 45 20             	mov    0x20(%ebp),%eax
    1483:	3b 45 18             	cmp    0x18(%ebp),%eax
    1486:	7e 07                	jle    148f <draw_line+0xc8>
    1488:	b8 00 04 00 00       	mov    $0x400,%eax
    148d:	eb 05                	jmp    1494 <draw_line+0xcd>
    148f:	b8 00 fc ff ff       	mov    $0xfffffc00,%eax
    1494:	89 45 f8             	mov    %eax,-0x8(%ebp)
		dx = (x1 >= x0) ? (((x1 - x0 + 1) << 10) / len) : (((x1 - x0 - 1) << 10) / len);
    1497:	8b 45 1c             	mov    0x1c(%ebp),%eax
    149a:	3b 45 14             	cmp    0x14(%ebp),%eax
    149d:	7c 16                	jl     14b5 <draw_line+0xee>
    149f:	8b 45 14             	mov    0x14(%ebp),%eax
    14a2:	8b 55 1c             	mov    0x1c(%ebp),%edx
    14a5:	29 c2                	sub    %eax,%edx
    14a7:	89 d0                	mov    %edx,%eax
    14a9:	83 c0 01             	add    $0x1,%eax
    14ac:	c1 e0 0a             	shl    $0xa,%eax
    14af:	99                   	cltd   
    14b0:	f7 7d ec             	idivl  -0x14(%ebp)
    14b3:	eb 14                	jmp    14c9 <draw_line+0x102>
    14b5:	8b 45 14             	mov    0x14(%ebp),%eax
    14b8:	8b 55 1c             	mov    0x1c(%ebp),%edx
    14bb:	29 c2                	sub    %eax,%edx
    14bd:	89 d0                	mov    %edx,%eax
    14bf:	83 e8 01             	sub    $0x1,%eax
    14c2:	c1 e0 0a             	shl    $0xa,%eax
    14c5:	99                   	cltd   
    14c6:	f7 7d ec             	idivl  -0x14(%ebp)
    14c9:	89 45 fc             	mov    %eax,-0x4(%ebp)
	}
	for(i = 0; i < len; i++) {
    14cc:	c7 45 e8 00 00 00 00 	movl   $0x0,-0x18(%ebp)
    14d3:	eb 47                	jmp    151c <draw_line+0x155>
		//printf(0, "draw line point: x=%d, y=%d\n", (x >> 10), (y >> 10));
		draw_point(c, (x >> 10), (y >> 10), color);
    14d5:	0f b7 4d dc          	movzwl -0x24(%ebp),%ecx
    14d9:	8b 45 f0             	mov    -0x10(%ebp),%eax
    14dc:	c1 f8 0a             	sar    $0xa,%eax
    14df:	89 c2                	mov    %eax,%edx
    14e1:	8b 45 f4             	mov    -0xc(%ebp),%eax
    14e4:	c1 f8 0a             	sar    $0xa,%eax
    14e7:	89 4c 24 14          	mov    %ecx,0x14(%esp)
    14eb:	89 54 24 10          	mov    %edx,0x10(%esp)
    14ef:	89 44 24 0c          	mov    %eax,0xc(%esp)
    14f3:	8b 45 08             	mov    0x8(%ebp),%eax
    14f6:	89 04 24             	mov    %eax,(%esp)
    14f9:	8b 45 0c             	mov    0xc(%ebp),%eax
    14fc:	89 44 24 04          	mov    %eax,0x4(%esp)
    1500:	8b 45 10             	mov    0x10(%ebp),%eax
    1503:	89 44 24 08          	mov    %eax,0x8(%esp)
    1507:	e8 07 f7 ff ff       	call   c13 <draw_point>
		y += dy;
    150c:	8b 45 f8             	mov    -0x8(%ebp),%eax
    150f:	01 45 f0             	add    %eax,-0x10(%ebp)
		x += dx;
    1512:	8b 45 fc             	mov    -0x4(%ebp),%eax
    1515:	01 45 f4             	add    %eax,-0xc(%ebp)
	else {
		len = dy + 1;
		dy = (y1 > y0) ? 1024 : -1024;
		dx = (x1 >= x0) ? (((x1 - x0 + 1) << 10) / len) : (((x1 - x0 - 1) << 10) / len);
	}
	for(i = 0; i < len; i++) {
    1518:	83 45 e8 01          	addl   $0x1,-0x18(%ebp)
    151c:	8b 45 e8             	mov    -0x18(%ebp),%eax
    151f:	3b 45 ec             	cmp    -0x14(%ebp),%eax
    1522:	7c b1                	jl     14d5 <draw_line+0x10e>
		//printf(0, "draw line point: x=%d, y=%d\n", (x >> 10), (y >> 10));
		draw_point(c, (x >> 10), (y >> 10), color);
		y += dy;
		x += dx;
	}
}
    1524:	c9                   	leave  
    1525:	c3                   	ret    

00001526 <draw_window>:

void
draw_window(Context c, char *title)
{
    1526:	55                   	push   %ebp
    1527:	89 e5                	mov    %esp,%ebp
    1529:	83 ec 38             	sub    $0x38,%esp
  PICNODE pic;
  draw_line(c, 0, 0, c.width - 1, 0, BORDERLINE_COLOR);
    152c:	8b 45 0c             	mov    0xc(%ebp),%eax
    152f:	83 e8 01             	sub    $0x1,%eax
    1532:	c7 44 24 1c 00 00 00 	movl   $0x0,0x1c(%esp)
    1539:	00 
    153a:	c7 44 24 18 00 00 00 	movl   $0x0,0x18(%esp)
    1541:	00 
    1542:	89 44 24 14          	mov    %eax,0x14(%esp)
    1546:	c7 44 24 10 00 00 00 	movl   $0x0,0x10(%esp)
    154d:	00 
    154e:	c7 44 24 0c 00 00 00 	movl   $0x0,0xc(%esp)
    1555:	00 
    1556:	8b 45 08             	mov    0x8(%ebp),%eax
    1559:	89 04 24             	mov    %eax,(%esp)
    155c:	8b 45 0c             	mov    0xc(%ebp),%eax
    155f:	89 44 24 04          	mov    %eax,0x4(%esp)
    1563:	8b 45 10             	mov    0x10(%ebp),%eax
    1566:	89 44 24 08          	mov    %eax,0x8(%esp)
    156a:	e8 58 fe ff ff       	call   13c7 <draw_line>
  draw_line(c, c.width - 1, 0, c.width - 1, c.height - 1, BORDERLINE_COLOR);
    156f:	8b 45 10             	mov    0x10(%ebp),%eax
    1572:	8d 48 ff             	lea    -0x1(%eax),%ecx
    1575:	8b 45 0c             	mov    0xc(%ebp),%eax
    1578:	8d 50 ff             	lea    -0x1(%eax),%edx
    157b:	8b 45 0c             	mov    0xc(%ebp),%eax
    157e:	83 e8 01             	sub    $0x1,%eax
    1581:	c7 44 24 1c 00 00 00 	movl   $0x0,0x1c(%esp)
    1588:	00 
    1589:	89 4c 24 18          	mov    %ecx,0x18(%esp)
    158d:	89 54 24 14          	mov    %edx,0x14(%esp)
    1591:	c7 44 24 10 00 00 00 	movl   $0x0,0x10(%esp)
    1598:	00 
    1599:	89 44 24 0c          	mov    %eax,0xc(%esp)
    159d:	8b 45 08             	mov    0x8(%ebp),%eax
    15a0:	89 04 24             	mov    %eax,(%esp)
    15a3:	8b 45 0c             	mov    0xc(%ebp),%eax
    15a6:	89 44 24 04          	mov    %eax,0x4(%esp)
    15aa:	8b 45 10             	mov    0x10(%ebp),%eax
    15ad:	89 44 24 08          	mov    %eax,0x8(%esp)
    15b1:	e8 11 fe ff ff       	call   13c7 <draw_line>
  draw_line(c, c.width - 1, c.height - 1, 0, c.height - 1, BORDERLINE_COLOR);
    15b6:	8b 45 10             	mov    0x10(%ebp),%eax
    15b9:	8d 48 ff             	lea    -0x1(%eax),%ecx
    15bc:	8b 45 10             	mov    0x10(%ebp),%eax
    15bf:	8d 50 ff             	lea    -0x1(%eax),%edx
    15c2:	8b 45 0c             	mov    0xc(%ebp),%eax
    15c5:	83 e8 01             	sub    $0x1,%eax
    15c8:	c7 44 24 1c 00 00 00 	movl   $0x0,0x1c(%esp)
    15cf:	00 
    15d0:	89 4c 24 18          	mov    %ecx,0x18(%esp)
    15d4:	c7 44 24 14 00 00 00 	movl   $0x0,0x14(%esp)
    15db:	00 
    15dc:	89 54 24 10          	mov    %edx,0x10(%esp)
    15e0:	89 44 24 0c          	mov    %eax,0xc(%esp)
    15e4:	8b 45 08             	mov    0x8(%ebp),%eax
    15e7:	89 04 24             	mov    %eax,(%esp)
    15ea:	8b 45 0c             	mov    0xc(%ebp),%eax
    15ed:	89 44 24 04          	mov    %eax,0x4(%esp)
    15f1:	8b 45 10             	mov    0x10(%ebp),%eax
    15f4:	89 44 24 08          	mov    %eax,0x8(%esp)
    15f8:	e8 ca fd ff ff       	call   13c7 <draw_line>
  draw_line(c, 0, c.height - 1, 0, 0, BORDERLINE_COLOR);
    15fd:	8b 45 10             	mov    0x10(%ebp),%eax
    1600:	83 e8 01             	sub    $0x1,%eax
    1603:	c7 44 24 1c 00 00 00 	movl   $0x0,0x1c(%esp)
    160a:	00 
    160b:	c7 44 24 18 00 00 00 	movl   $0x0,0x18(%esp)
    1612:	00 
    1613:	c7 44 24 14 00 00 00 	movl   $0x0,0x14(%esp)
    161a:	00 
    161b:	89 44 24 10          	mov    %eax,0x10(%esp)
    161f:	c7 44 24 0c 00 00 00 	movl   $0x0,0xc(%esp)
    1626:	00 
    1627:	8b 45 08             	mov    0x8(%ebp),%eax
    162a:	89 04 24             	mov    %eax,(%esp)
    162d:	8b 45 0c             	mov    0xc(%ebp),%eax
    1630:	89 44 24 04          	mov    %eax,0x4(%esp)
    1634:	8b 45 10             	mov    0x10(%ebp),%eax
    1637:	89 44 24 08          	mov    %eax,0x8(%esp)
    163b:	e8 87 fd ff ff       	call   13c7 <draw_line>
  fill_rect(c, 1, 1, c.width - 2, BOTTOMBAR_HEIGHT, TOPBAR_COLOR);
    1640:	8b 45 0c             	mov    0xc(%ebp),%eax
    1643:	83 e8 02             	sub    $0x2,%eax
    1646:	c7 44 24 1c cb 5a 00 	movl   $0x5acb,0x1c(%esp)
    164d:	00 
    164e:	c7 44 24 18 14 00 00 	movl   $0x14,0x18(%esp)
    1655:	00 
    1656:	89 44 24 14          	mov    %eax,0x14(%esp)
    165a:	c7 44 24 10 01 00 00 	movl   $0x1,0x10(%esp)
    1661:	00 
    1662:	c7 44 24 0c 01 00 00 	movl   $0x1,0xc(%esp)
    1669:	00 
    166a:	8b 45 08             	mov    0x8(%ebp),%eax
    166d:	89 04 24             	mov    %eax,(%esp)
    1670:	8b 45 0c             	mov    0xc(%ebp),%eax
    1673:	89 44 24 04          	mov    %eax,0x4(%esp)
    1677:	8b 45 10             	mov    0x10(%ebp),%eax
    167a:	89 44 24 08          	mov    %eax,0x8(%esp)
    167e:	e8 cf f5 ff ff       	call   c52 <fill_rect>
  fill_rect(c, 1, c.height - 1 - BOTTOMBAR_HEIGHT, c.width - 2, BOTTOMBAR_HEIGHT, BOTTOMBAR_COLOR);
    1683:	8b 45 0c             	mov    0xc(%ebp),%eax
    1686:	83 e8 02             	sub    $0x2,%eax
    1689:	89 c2                	mov    %eax,%edx
    168b:	8b 45 10             	mov    0x10(%ebp),%eax
    168e:	83 e8 15             	sub    $0x15,%eax
    1691:	c7 44 24 1c cb 5a 00 	movl   $0x5acb,0x1c(%esp)
    1698:	00 
    1699:	c7 44 24 18 14 00 00 	movl   $0x14,0x18(%esp)
    16a0:	00 
    16a1:	89 54 24 14          	mov    %edx,0x14(%esp)
    16a5:	89 44 24 10          	mov    %eax,0x10(%esp)
    16a9:	c7 44 24 0c 01 00 00 	movl   $0x1,0xc(%esp)
    16b0:	00 
    16b1:	8b 45 08             	mov    0x8(%ebp),%eax
    16b4:	89 04 24             	mov    %eax,(%esp)
    16b7:	8b 45 0c             	mov    0xc(%ebp),%eax
    16ba:	89 44 24 04          	mov    %eax,0x4(%esp)
    16be:	8b 45 10             	mov    0x10(%ebp),%eax
    16c1:	89 44 24 08          	mov    %eax,0x8(%esp)
    16c5:	e8 88 f5 ff ff       	call   c52 <fill_rect>

  loadBitmap(&pic, "close.bmp");
    16ca:	c7 44 24 04 5c 93 00 	movl   $0x935c,0x4(%esp)
    16d1:	00 
    16d2:	8d 45 ec             	lea    -0x14(%ebp),%eax
    16d5:	89 04 24             	mov    %eax,(%esp)
    16d8:	e8 44 01 00 00       	call   1821 <loadBitmap>
  draw_picture(c, pic, 3, 3);
    16dd:	c7 44 24 1c 03 00 00 	movl   $0x3,0x1c(%esp)
    16e4:	00 
    16e5:	c7 44 24 18 03 00 00 	movl   $0x3,0x18(%esp)
    16ec:	00 
    16ed:	8b 45 ec             	mov    -0x14(%ebp),%eax
    16f0:	89 44 24 0c          	mov    %eax,0xc(%esp)
    16f4:	8b 45 f0             	mov    -0x10(%ebp),%eax
    16f7:	89 44 24 10          	mov    %eax,0x10(%esp)
    16fb:	8b 45 f4             	mov    -0xc(%ebp),%eax
    16fe:	89 44 24 14          	mov    %eax,0x14(%esp)
    1702:	8b 45 08             	mov    0x8(%ebp),%eax
    1705:	89 04 24             	mov    %eax,(%esp)
    1708:	8b 45 0c             	mov    0xc(%ebp),%eax
    170b:	89 44 24 04          	mov    %eax,0x4(%esp)
    170f:	8b 45 10             	mov    0x10(%ebp),%eax
    1712:	89 44 24 08          	mov    %eax,0x8(%esp)
    1716:	e8 d6 fb ff ff       	call   12f1 <draw_picture>
  puts_str(c, title, TITLE_COLOR, TITLE_OFFSET_X, TITLE_OFFSET_Y);
    171b:	c7 44 24 18 02 00 00 	movl   $0x2,0x18(%esp)
    1722:	00 
    1723:	c7 44 24 14 19 00 00 	movl   $0x19,0x14(%esp)
    172a:	00 
    172b:	c7 44 24 10 ff ff 00 	movl   $0xffff,0x10(%esp)
    1732:	00 
    1733:	8b 45 14             	mov    0x14(%ebp),%eax
    1736:	89 44 24 0c          	mov    %eax,0xc(%esp)
    173a:	8b 45 08             	mov    0x8(%ebp),%eax
    173d:	89 04 24             	mov    %eax,(%esp)
    1740:	8b 45 0c             	mov    0xc(%ebp),%eax
    1743:	89 44 24 04          	mov    %eax,0x4(%esp)
    1747:	8b 45 10             	mov    0x10(%ebp),%eax
    174a:	89 44 24 08          	mov    %eax,0x8(%esp)
    174e:	e8 de fa ff ff       	call   1231 <puts_str>
  freepic(&pic);
    1753:	8d 45 ec             	lea    -0x14(%ebp),%eax
    1756:	89 04 24             	mov    %eax,(%esp)
    1759:	e8 6f 06 00 00       	call   1dcd <freepic>
}
    175e:	c9                   	leave  
    175f:	c3                   	ret    

00001760 <load_iconlist>:

void load_iconlist(ICON* iconlist, int len)
{
    1760:	55                   	push   %ebp
    1761:	89 e5                	mov    %esp,%ebp
    1763:	83 ec 28             	sub    $0x28,%esp
	int i;
	for (i = 0; i < len; i++)
    1766:	c7 45 f4 00 00 00 00 	movl   $0x0,-0xc(%ebp)
    176d:	eb 29                	jmp    1798 <load_iconlist+0x38>
	{
	    loadBitmap(&(iconlist[i].pic), iconlist[i].name);
    176f:	8b 45 f4             	mov    -0xc(%ebp),%eax
    1772:	6b d0 34             	imul   $0x34,%eax,%edx
    1775:	8b 45 08             	mov    0x8(%ebp),%eax
    1778:	01 d0                	add    %edx,%eax
    177a:	8b 55 f4             	mov    -0xc(%ebp),%edx
    177d:	6b ca 34             	imul   $0x34,%edx,%ecx
    1780:	8b 55 08             	mov    0x8(%ebp),%edx
    1783:	01 ca                	add    %ecx,%edx
    1785:	83 c2 28             	add    $0x28,%edx
    1788:	89 44 24 04          	mov    %eax,0x4(%esp)
    178c:	89 14 24             	mov    %edx,(%esp)
    178f:	e8 8d 00 00 00       	call   1821 <loadBitmap>
}

void load_iconlist(ICON* iconlist, int len)
{
	int i;
	for (i = 0; i < len; i++)
    1794:	83 45 f4 01          	addl   $0x1,-0xc(%ebp)
    1798:	8b 45 f4             	mov    -0xc(%ebp),%eax
    179b:	3b 45 0c             	cmp    0xc(%ebp),%eax
    179e:	7c cf                	jl     176f <load_iconlist+0xf>
	{
	    loadBitmap(&(iconlist[i].pic), iconlist[i].name);
	}
}
    17a0:	c9                   	leave  
    17a1:	c3                   	ret    

000017a2 <draw_iconlist>:
void draw_iconlist(Context c, ICON* iconlist, int len)
{
    17a2:	55                   	push   %ebp
    17a3:	89 e5                	mov    %esp,%ebp
    17a5:	53                   	push   %ebx
    17a6:	83 ec 30             	sub    $0x30,%esp
    int i;
    for (i = 0; i < len; i++)
    17a9:	c7 45 f8 00 00 00 00 	movl   $0x0,-0x8(%ebp)
    17b0:	eb 61                	jmp    1813 <draw_iconlist+0x71>
    {
        draw_picture(c, iconlist[i].pic, iconlist[i].position_x, iconlist[i].position_y);
    17b2:	8b 45 f8             	mov    -0x8(%ebp),%eax
    17b5:	6b d0 34             	imul   $0x34,%eax,%edx
    17b8:	8b 45 14             	mov    0x14(%ebp),%eax
    17bb:	01 d0                	add    %edx,%eax
    17bd:	8b 48 24             	mov    0x24(%eax),%ecx
    17c0:	8b 45 f8             	mov    -0x8(%ebp),%eax
    17c3:	6b d0 34             	imul   $0x34,%eax,%edx
    17c6:	8b 45 14             	mov    0x14(%ebp),%eax
    17c9:	01 d0                	add    %edx,%eax
    17cb:	8b 50 20             	mov    0x20(%eax),%edx
    17ce:	8b 45 f8             	mov    -0x8(%ebp),%eax
    17d1:	6b d8 34             	imul   $0x34,%eax,%ebx
    17d4:	8b 45 14             	mov    0x14(%ebp),%eax
    17d7:	01 d8                	add    %ebx,%eax
    17d9:	89 4c 24 1c          	mov    %ecx,0x1c(%esp)
    17dd:	89 54 24 18          	mov    %edx,0x18(%esp)
    17e1:	8b 50 28             	mov    0x28(%eax),%edx
    17e4:	89 54 24 0c          	mov    %edx,0xc(%esp)
    17e8:	8b 50 2c             	mov    0x2c(%eax),%edx
    17eb:	89 54 24 10          	mov    %edx,0x10(%esp)
    17ef:	8b 40 30             	mov    0x30(%eax),%eax
    17f2:	89 44 24 14          	mov    %eax,0x14(%esp)
    17f6:	8b 45 08             	mov    0x8(%ebp),%eax
    17f9:	89 04 24             	mov    %eax,(%esp)
    17fc:	8b 45 0c             	mov    0xc(%ebp),%eax
    17ff:	89 44 24 04          	mov    %eax,0x4(%esp)
    1803:	8b 45 10             	mov    0x10(%ebp),%eax
    1806:	89 44 24 08          	mov    %eax,0x8(%esp)
    180a:	e8 e2 fa ff ff       	call   12f1 <draw_picture>
	}
}
void draw_iconlist(Context c, ICON* iconlist, int len)
{
    int i;
    for (i = 0; i < len; i++)
    180f:	83 45 f8 01          	addl   $0x1,-0x8(%ebp)
    1813:	8b 45 f8             	mov    -0x8(%ebp),%eax
    1816:	3b 45 18             	cmp    0x18(%ebp),%eax
    1819:	7c 97                	jl     17b2 <draw_iconlist+0x10>
    {
        draw_picture(c, iconlist[i].pic, iconlist[i].position_x, iconlist[i].position_y);
    }
}
    181b:	83 c4 30             	add    $0x30,%esp
    181e:	5b                   	pop    %ebx
    181f:	5d                   	pop    %ebp
    1820:	c3                   	ret    

00001821 <loadBitmap>:
#include "clickable.h"

void showRgbQuan(RGBQUAD* pRGB);
void showBmpHead(BITMAPFILEHEADER* pBmpHead);
void showBmpInforHead(BITMAPINFOHEADER* pBmpInforHead);
void loadBitmap(PICNODE *pic, char pic_name[]) {
    1821:	55                   	push   %ebp
    1822:	89 e5                	mov    %esp,%ebp
    1824:	81 ec a8 00 00 00    	sub    $0xa8,%esp
	BITMAPFILEHEADER bitHead;
	BITMAPINFOHEADER bitInfoHead;
	char *BmpFileHeader;
	WORD *temp_WORD;
	DWORD *temp_DWORD;
	int fd, n, i, j, k, index = 0;
    182a:	c7 45 ec 00 00 00 00 	movl   $0x0,-0x14(%ebp)
	int width;
	int height;

	if ((fd = open(pic_name, 0)) < 0) {
    1831:	c7 44 24 04 00 00 00 	movl   $0x0,0x4(%esp)
    1838:	00 
    1839:	8b 45 0c             	mov    0xc(%ebp),%eax
    183c:	89 04 24             	mov    %eax,(%esp)
    183f:	e8 ef 11 00 00       	call   2a33 <open>
    1844:	89 45 e8             	mov    %eax,-0x18(%ebp)
    1847:	83 7d e8 00          	cmpl   $0x0,-0x18(%ebp)
    184b:	79 20                	jns    186d <loadBitmap+0x4c>
		printf(0, "cannot open %s\n", pic_name);
    184d:	8b 45 0c             	mov    0xc(%ebp),%eax
    1850:	89 44 24 08          	mov    %eax,0x8(%esp)
    1854:	c7 44 24 04 68 93 00 	movl   $0x9368,0x4(%esp)
    185b:	00 
    185c:	c7 04 24 00 00 00 00 	movl   $0x0,(%esp)
    1863:	e8 73 13 00 00       	call   2bdb <printf>
		return;
    1868:	e9 ef 02 00 00       	jmp    1b5c <loadBitmap+0x33b>
	}
	printf(0, "reading bitmap: %s\n", pic_name);
    186d:	8b 45 0c             	mov    0xc(%ebp),%eax
    1870:	89 44 24 08          	mov    %eax,0x8(%esp)
    1874:	c7 44 24 04 78 93 00 	movl   $0x9378,0x4(%esp)
    187b:	00 
    187c:	c7 04 24 00 00 00 00 	movl   $0x0,(%esp)
    1883:	e8 53 13 00 00       	call   2bdb <printf>
	//pfile = fopen(strFile,"rb");//打开文件
	BmpFileHeader = (char *) malloc(14 * sizeof(char));
    1888:	c7 04 24 0e 00 00 00 	movl   $0xe,(%esp)
    188f:	e8 33 16 00 00       	call   2ec7 <malloc>
    1894:	89 45 e4             	mov    %eax,-0x1c(%ebp)

	//printf(0, "file bmp open success.\n");
	//读取位图文件头信息
	//printf(0, "reading BmpFileHeader.\n");
	n = read(fd, BmpFileHeader, 14);
    1897:	c7 44 24 08 0e 00 00 	movl   $0xe,0x8(%esp)
    189e:	00 
    189f:	8b 45 e4             	mov    -0x1c(%ebp),%eax
    18a2:	89 44 24 04          	mov    %eax,0x4(%esp)
    18a6:	8b 45 e8             	mov    -0x18(%ebp),%eax
    18a9:	89 04 24             	mov    %eax,(%esp)
    18ac:	e8 5a 11 00 00       	call   2a0b <read>
    18b1:	89 45 e0             	mov    %eax,-0x20(%ebp)
	//fread(BmpFileHeader,1,14,pfile);
	temp_WORD = (WORD*) (BmpFileHeader);
    18b4:	8b 45 e4             	mov    -0x1c(%ebp),%eax
    18b7:	89 45 dc             	mov    %eax,-0x24(%ebp)
	bitHead.bfType = *temp_WORD;
    18ba:	8b 45 dc             	mov    -0x24(%ebp),%eax
    18bd:	0f b7 00             	movzwl (%eax),%eax
    18c0:	66 89 45 ac          	mov    %ax,-0x54(%ebp)
	if (bitHead.bfType != 0x4d42) {
    18c4:	0f b7 45 ac          	movzwl -0x54(%ebp),%eax
    18c8:	66 3d 42 4d          	cmp    $0x4d42,%ax
    18cc:	74 19                	je     18e7 <loadBitmap+0xc6>
		printf(0, "file is not .bmp file!");
    18ce:	c7 44 24 04 8c 93 00 	movl   $0x938c,0x4(%esp)
    18d5:	00 
    18d6:	c7 04 24 00 00 00 00 	movl   $0x0,(%esp)
    18dd:	e8 f9 12 00 00       	call   2bdb <printf>
		return;
    18e2:	e9 75 02 00 00       	jmp    1b5c <loadBitmap+0x33b>
	}
	temp_DWORD = (DWORD *) (BmpFileHeader + sizeof(bitHead.bfType));
    18e7:	8b 45 e4             	mov    -0x1c(%ebp),%eax
    18ea:	83 c0 02             	add    $0x2,%eax
    18ed:	89 45 d8             	mov    %eax,-0x28(%ebp)
	bitHead.bfSize = *temp_DWORD;
    18f0:	8b 45 d8             	mov    -0x28(%ebp),%eax
    18f3:	8b 00                	mov    (%eax),%eax
    18f5:	89 45 b0             	mov    %eax,-0x50(%ebp)
	temp_WORD = (WORD*) (BmpFileHeader + sizeof(bitHead.bfType)
    18f8:	8b 45 e4             	mov    -0x1c(%ebp),%eax
    18fb:	83 c0 06             	add    $0x6,%eax
    18fe:	89 45 dc             	mov    %eax,-0x24(%ebp)
			+ sizeof(bitHead.bfSize));
	bitHead.bfReserved1 = *temp_WORD;
    1901:	8b 45 dc             	mov    -0x24(%ebp),%eax
    1904:	0f b7 00             	movzwl (%eax),%eax
    1907:	66 89 45 b4          	mov    %ax,-0x4c(%ebp)
	temp_WORD = (WORD*) (BmpFileHeader + sizeof(bitHead.bfType)
    190b:	8b 45 e4             	mov    -0x1c(%ebp),%eax
    190e:	83 c0 08             	add    $0x8,%eax
    1911:	89 45 dc             	mov    %eax,-0x24(%ebp)
			+ sizeof(bitHead.bfSize) + sizeof(bitHead.bfReserved1));
	bitHead.bfReserved2 = *temp_WORD;
    1914:	8b 45 dc             	mov    -0x24(%ebp),%eax
    1917:	0f b7 00             	movzwl (%eax),%eax
    191a:	66 89 45 b6          	mov    %ax,-0x4a(%ebp)
	temp_DWORD = (DWORD*) (BmpFileHeader + sizeof(bitHead.bfType)
    191e:	8b 45 e4             	mov    -0x1c(%ebp),%eax
    1921:	83 c0 0a             	add    $0xa,%eax
    1924:	89 45 d8             	mov    %eax,-0x28(%ebp)
			+ sizeof(bitHead.bfSize) + sizeof(bitHead.bfReserved1)
			+ sizeof(bitHead.bfReserved2));
	bitHead.bfOffBits = *temp_DWORD;
    1927:	8b 45 d8             	mov    -0x28(%ebp),%eax
    192a:	8b 00                	mov    (%eax),%eax
    192c:	89 45 b8             	mov    %eax,-0x48(%ebp)
	//printf(0, "reading BmpFileHeader success!\n");
	//showBmpHead(&bitHead);
	//printf(0, "\n\n");
//
//	//读取位图信息头信息
	read(fd, &bitInfoHead, sizeof(BITMAPINFOHEADER));
    192f:	c7 44 24 08 28 00 00 	movl   $0x28,0x8(%esp)
    1936:	00 
    1937:	8d 45 84             	lea    -0x7c(%ebp),%eax
    193a:	89 44 24 04          	mov    %eax,0x4(%esp)
    193e:	8b 45 e8             	mov    -0x18(%ebp),%eax
    1941:	89 04 24             	mov    %eax,(%esp)
    1944:	e8 c2 10 00 00       	call   2a0b <read>
	width = bitInfoHead.biWidth;
    1949:	8b 45 88             	mov    -0x78(%ebp),%eax
    194c:	89 45 d4             	mov    %eax,-0x2c(%ebp)
	height = bitInfoHead.biHeight;
    194f:	8b 45 8c             	mov    -0x74(%ebp),%eax
    1952:	89 45 d0             	mov    %eax,-0x30(%ebp)
	printf(0, "bmp width: %d, height: %d, size: %d\n", width, height,
			width * height * sizeof(RGBQUAD));
    1955:	8b 45 d4             	mov    -0x2c(%ebp),%eax
    1958:	0f af 45 d0          	imul   -0x30(%ebp),%eax
//
//	//读取位图信息头信息
	read(fd, &bitInfoHead, sizeof(BITMAPINFOHEADER));
	width = bitInfoHead.biWidth;
	height = bitInfoHead.biHeight;
	printf(0, "bmp width: %d, height: %d, size: %d\n", width, height,
    195c:	c1 e0 02             	shl    $0x2,%eax
    195f:	89 44 24 10          	mov    %eax,0x10(%esp)
    1963:	8b 45 d0             	mov    -0x30(%ebp),%eax
    1966:	89 44 24 0c          	mov    %eax,0xc(%esp)
    196a:	8b 45 d4             	mov    -0x2c(%ebp),%eax
    196d:	89 44 24 08          	mov    %eax,0x8(%esp)
    1971:	c7 44 24 04 a4 93 00 	movl   $0x93a4,0x4(%esp)
    1978:	00 
    1979:	c7 04 24 00 00 00 00 	movl   $0x0,(%esp)
    1980:	e8 56 12 00 00       	call   2bdb <printf>
			width * height * sizeof(RGBQUAD));
	//fread(&bitInfoHead,1,sizeof(BITMAPINFOHEADER),pfile);
	//showBmpInforHead(&bitInfoHead);
	//printf(0, "\n");
	if (n == 0) {
    1985:	83 7d e0 00          	cmpl   $0x0,-0x20(%ebp)
    1989:	75 14                	jne    199f <loadBitmap+0x17e>
		printf(0, "0");
    198b:	c7 44 24 04 c9 93 00 	movl   $0x93c9,0x4(%esp)
    1992:	00 
    1993:	c7 04 24 00 00 00 00 	movl   $0x0,(%esp)
    199a:	e8 3c 12 00 00       	call   2bdb <printf>
	}

	//分配内存空间把源图存入内存
	int l_width = WIDTHBYTES(width * bitInfoHead.biBitCount);//计算位图的实际宽度并确保它为32的倍数
    199f:	0f b7 45 92          	movzwl -0x6e(%ebp),%eax
    19a3:	0f b7 c0             	movzwl %ax,%eax
    19a6:	0f af 45 d4          	imul   -0x2c(%ebp),%eax
    19aa:	83 c0 1f             	add    $0x1f,%eax
    19ad:	8d 50 1f             	lea    0x1f(%eax),%edx
    19b0:	85 c0                	test   %eax,%eax
    19b2:	0f 48 c2             	cmovs  %edx,%eax
    19b5:	c1 f8 05             	sar    $0x5,%eax
    19b8:	c1 e0 02             	shl    $0x2,%eax
    19bb:	89 45 cc             	mov    %eax,-0x34(%ebp)
	BYTE *pColorData = (BYTE *) malloc(height * l_width);
    19be:	8b 45 d0             	mov    -0x30(%ebp),%eax
    19c1:	0f af 45 cc          	imul   -0x34(%ebp),%eax
    19c5:	89 04 24             	mov    %eax,(%esp)
    19c8:	e8 fa 14 00 00       	call   2ec7 <malloc>
    19cd:	89 45 c8             	mov    %eax,-0x38(%ebp)
	memset(pColorData, 0, (uint) height * l_width);
    19d0:	8b 55 d0             	mov    -0x30(%ebp),%edx
    19d3:	8b 45 cc             	mov    -0x34(%ebp),%eax
    19d6:	0f af c2             	imul   %edx,%eax
    19d9:	89 44 24 08          	mov    %eax,0x8(%esp)
    19dd:	c7 44 24 04 00 00 00 	movl   $0x0,0x4(%esp)
    19e4:	00 
    19e5:	8b 45 c8             	mov    -0x38(%ebp),%eax
    19e8:	89 04 24             	mov    %eax,(%esp)
    19eb:	e8 56 0e 00 00       	call   2846 <memset>
	long nData = height * l_width;
    19f0:	8b 45 d0             	mov    -0x30(%ebp),%eax
    19f3:	0f af 45 cc          	imul   -0x34(%ebp),%eax
    19f7:	89 45 c4             	mov    %eax,-0x3c(%ebp)
	//把位图数据信息读到数组里
	read(fd, pColorData, nData);
    19fa:	8b 45 c4             	mov    -0x3c(%ebp),%eax
    19fd:	89 44 24 08          	mov    %eax,0x8(%esp)
    1a01:	8b 45 c8             	mov    -0x38(%ebp),%eax
    1a04:	89 44 24 04          	mov    %eax,0x4(%esp)
    1a08:	8b 45 e8             	mov    -0x18(%ebp),%eax
    1a0b:	89 04 24             	mov    %eax,(%esp)
    1a0e:	e8 f8 0f 00 00       	call   2a0b <read>

	//printf(0, "reading bmp data.\n");
	//将位图数据转化为RGB数据
	RGBQUAD* dataOfBmp;

	dataOfBmp = (RGBQUAD *) malloc(width * height * sizeof(RGBQUAD));//用于保存各像素对应的RGB数据
    1a13:	8b 45 d4             	mov    -0x2c(%ebp),%eax
    1a16:	0f af 45 d0          	imul   -0x30(%ebp),%eax
    1a1a:	c1 e0 02             	shl    $0x2,%eax
    1a1d:	89 04 24             	mov    %eax,(%esp)
    1a20:	e8 a2 14 00 00       	call   2ec7 <malloc>
    1a25:	89 45 c0             	mov    %eax,-0x40(%ebp)
	memset(dataOfBmp, 0, (uint) width * height * sizeof(RGBQUAD));
    1a28:	8b 55 d4             	mov    -0x2c(%ebp),%edx
    1a2b:	8b 45 d0             	mov    -0x30(%ebp),%eax
    1a2e:	0f af c2             	imul   %edx,%eax
    1a31:	c1 e0 02             	shl    $0x2,%eax
    1a34:	89 44 24 08          	mov    %eax,0x8(%esp)
    1a38:	c7 44 24 04 00 00 00 	movl   $0x0,0x4(%esp)
    1a3f:	00 
    1a40:	8b 45 c0             	mov    -0x40(%ebp),%eax
    1a43:	89 04 24             	mov    %eax,(%esp)
    1a46:	e8 fb 0d 00 00       	call   2846 <memset>
	if (bitInfoHead.biBitCount < 24)	//有调色板，即位图为非真彩色
    1a4b:	0f b7 45 92          	movzwl -0x6e(%ebp),%eax
    1a4f:	66 83 f8 17          	cmp    $0x17,%ax
    1a53:	77 19                	ja     1a6e <loadBitmap+0x24d>
			{
		printf(0, "%s is not a 24 bit bmp! return.");
    1a55:	c7 44 24 04 cc 93 00 	movl   $0x93cc,0x4(%esp)
    1a5c:	00 
    1a5d:	c7 04 24 00 00 00 00 	movl   $0x0,(%esp)
    1a64:	e8 72 11 00 00       	call   2bdb <printf>
		return;
    1a69:	e9 ee 00 00 00       	jmp    1b5c <loadBitmap+0x33b>
	} else	//位图为24位真彩色
	{
		index = 0;
    1a6e:	c7 45 ec 00 00 00 00 	movl   $0x0,-0x14(%ebp)
		for (i = 0; i < height; i++)
    1a75:	c7 45 f4 00 00 00 00 	movl   $0x0,-0xc(%ebp)
    1a7c:	e9 94 00 00 00       	jmp    1b15 <loadBitmap+0x2f4>
			for (j = 0; j < width; j++) {
    1a81:	c7 45 f0 00 00 00 00 	movl   $0x0,-0x10(%ebp)
    1a88:	eb 7b                	jmp    1b05 <loadBitmap+0x2e4>
				k = i * l_width + j * 3;
    1a8a:	8b 45 f4             	mov    -0xc(%ebp),%eax
    1a8d:	0f af 45 cc          	imul   -0x34(%ebp),%eax
    1a91:	89 c1                	mov    %eax,%ecx
    1a93:	8b 55 f0             	mov    -0x10(%ebp),%edx
    1a96:	89 d0                	mov    %edx,%eax
    1a98:	01 c0                	add    %eax,%eax
    1a9a:	01 d0                	add    %edx,%eax
    1a9c:	01 c8                	add    %ecx,%eax
    1a9e:	89 45 bc             	mov    %eax,-0x44(%ebp)
				dataOfBmp[index].rgbRed = pColorData[k + 2];
    1aa1:	8b 45 ec             	mov    -0x14(%ebp),%eax
    1aa4:	8d 14 85 00 00 00 00 	lea    0x0(,%eax,4),%edx
    1aab:	8b 45 c0             	mov    -0x40(%ebp),%eax
    1aae:	01 c2                	add    %eax,%edx
    1ab0:	8b 45 bc             	mov    -0x44(%ebp),%eax
    1ab3:	8d 48 02             	lea    0x2(%eax),%ecx
    1ab6:	8b 45 c8             	mov    -0x38(%ebp),%eax
    1ab9:	01 c8                	add    %ecx,%eax
    1abb:	0f b6 00             	movzbl (%eax),%eax
    1abe:	88 42 02             	mov    %al,0x2(%edx)
				dataOfBmp[index].rgbGreen = pColorData[k + 1];
    1ac1:	8b 45 ec             	mov    -0x14(%ebp),%eax
    1ac4:	8d 14 85 00 00 00 00 	lea    0x0(,%eax,4),%edx
    1acb:	8b 45 c0             	mov    -0x40(%ebp),%eax
    1ace:	01 c2                	add    %eax,%edx
    1ad0:	8b 45 bc             	mov    -0x44(%ebp),%eax
    1ad3:	8d 48 01             	lea    0x1(%eax),%ecx
    1ad6:	8b 45 c8             	mov    -0x38(%ebp),%eax
    1ad9:	01 c8                	add    %ecx,%eax
    1adb:	0f b6 00             	movzbl (%eax),%eax
    1ade:	88 42 01             	mov    %al,0x1(%edx)
				dataOfBmp[index].rgbBlue = pColorData[k];
    1ae1:	8b 45 ec             	mov    -0x14(%ebp),%eax
    1ae4:	8d 14 85 00 00 00 00 	lea    0x0(,%eax,4),%edx
    1aeb:	8b 45 c0             	mov    -0x40(%ebp),%eax
    1aee:	01 c2                	add    %eax,%edx
    1af0:	8b 4d bc             	mov    -0x44(%ebp),%ecx
    1af3:	8b 45 c8             	mov    -0x38(%ebp),%eax
    1af6:	01 c8                	add    %ecx,%eax
    1af8:	0f b6 00             	movzbl (%eax),%eax
    1afb:	88 02                	mov    %al,(%edx)
				index++;
    1afd:	83 45 ec 01          	addl   $0x1,-0x14(%ebp)
		return;
	} else	//位图为24位真彩色
	{
		index = 0;
		for (i = 0; i < height; i++)
			for (j = 0; j < width; j++) {
    1b01:	83 45 f0 01          	addl   $0x1,-0x10(%ebp)
    1b05:	8b 45 f0             	mov    -0x10(%ebp),%eax
    1b08:	3b 45 d4             	cmp    -0x2c(%ebp),%eax
    1b0b:	0f 8c 79 ff ff ff    	jl     1a8a <loadBitmap+0x269>
		printf(0, "%s is not a 24 bit bmp! return.");
		return;
	} else	//位图为24位真彩色
	{
		index = 0;
		for (i = 0; i < height; i++)
    1b11:	83 45 f4 01          	addl   $0x1,-0xc(%ebp)
    1b15:	8b 45 f4             	mov    -0xc(%ebp),%eax
    1b18:	3b 45 d0             	cmp    -0x30(%ebp),%eax
    1b1b:	0f 8c 60 ff ff ff    	jl     1a81 <loadBitmap+0x260>
//			printf(0, "\n");
//		}
//		showRgbQuan(&dataOfBmp[i]);
//	}

	close(fd);
    1b21:	8b 45 e8             	mov    -0x18(%ebp),%eax
    1b24:	89 04 24             	mov    %eax,(%esp)
    1b27:	e8 ef 0e 00 00       	call   2a1b <close>

	//free(dataOfBmp);
	pic->data = dataOfBmp;
    1b2c:	8b 45 08             	mov    0x8(%ebp),%eax
    1b2f:	8b 55 c0             	mov    -0x40(%ebp),%edx
    1b32:	89 10                	mov    %edx,(%eax)
	pic->width = width;
    1b34:	8b 45 08             	mov    0x8(%ebp),%eax
    1b37:	8b 55 d4             	mov    -0x2c(%ebp),%edx
    1b3a:	89 50 04             	mov    %edx,0x4(%eax)
	pic->height = height;
    1b3d:	8b 45 08             	mov    0x8(%ebp),%eax
    1b40:	8b 55 d0             	mov    -0x30(%ebp),%edx
    1b43:	89 50 08             	mov    %edx,0x8(%eax)
	free(pColorData);
    1b46:	8b 45 c8             	mov    -0x38(%ebp),%eax
    1b49:	89 04 24             	mov    %eax,(%esp)
    1b4c:	e8 3d 12 00 00       	call   2d8e <free>
	free(BmpFileHeader);
    1b51:	8b 45 e4             	mov    -0x1c(%ebp),%eax
    1b54:	89 04 24             	mov    %eax,(%esp)
    1b57:	e8 32 12 00 00       	call   2d8e <free>
	//printf("\n");
}
    1b5c:	c9                   	leave  
    1b5d:	c3                   	ret    

00001b5e <showBmpHead>:

void showBmpHead(BITMAPFILEHEADER* pBmpHead) {
    1b5e:	55                   	push   %ebp
    1b5f:	89 e5                	mov    %esp,%ebp
    1b61:	83 ec 18             	sub    $0x18,%esp
	printf(0, "位图文件头:\n");
    1b64:	c7 44 24 04 ec 93 00 	movl   $0x93ec,0x4(%esp)
    1b6b:	00 
    1b6c:	c7 04 24 00 00 00 00 	movl   $0x0,(%esp)
    1b73:	e8 63 10 00 00       	call   2bdb <printf>
	printf(0, "bmp格式标志bftype：0x%x\n", pBmpHead->bfType);
    1b78:	8b 45 08             	mov    0x8(%ebp),%eax
    1b7b:	0f b7 00             	movzwl (%eax),%eax
    1b7e:	0f b7 c0             	movzwl %ax,%eax
    1b81:	89 44 24 08          	mov    %eax,0x8(%esp)
    1b85:	c7 44 24 04 fe 93 00 	movl   $0x93fe,0x4(%esp)
    1b8c:	00 
    1b8d:	c7 04 24 00 00 00 00 	movl   $0x0,(%esp)
    1b94:	e8 42 10 00 00       	call   2bdb <printf>
	printf(0, "文件大小:%d\n", pBmpHead->bfSize);
    1b99:	8b 45 08             	mov    0x8(%ebp),%eax
    1b9c:	8b 40 04             	mov    0x4(%eax),%eax
    1b9f:	89 44 24 08          	mov    %eax,0x8(%esp)
    1ba3:	c7 44 24 04 1c 94 00 	movl   $0x941c,0x4(%esp)
    1baa:	00 
    1bab:	c7 04 24 00 00 00 00 	movl   $0x0,(%esp)
    1bb2:	e8 24 10 00 00       	call   2bdb <printf>
	printf(0, "保留字:%d\n", pBmpHead->bfReserved1);
    1bb7:	8b 45 08             	mov    0x8(%ebp),%eax
    1bba:	0f b7 40 08          	movzwl 0x8(%eax),%eax
    1bbe:	0f b7 c0             	movzwl %ax,%eax
    1bc1:	89 44 24 08          	mov    %eax,0x8(%esp)
    1bc5:	c7 44 24 04 2d 94 00 	movl   $0x942d,0x4(%esp)
    1bcc:	00 
    1bcd:	c7 04 24 00 00 00 00 	movl   $0x0,(%esp)
    1bd4:	e8 02 10 00 00       	call   2bdb <printf>
	printf(0, "保留字:%d\n", pBmpHead->bfReserved2);
    1bd9:	8b 45 08             	mov    0x8(%ebp),%eax
    1bdc:	0f b7 40 0a          	movzwl 0xa(%eax),%eax
    1be0:	0f b7 c0             	movzwl %ax,%eax
    1be3:	89 44 24 08          	mov    %eax,0x8(%esp)
    1be7:	c7 44 24 04 2d 94 00 	movl   $0x942d,0x4(%esp)
    1bee:	00 
    1bef:	c7 04 24 00 00 00 00 	movl   $0x0,(%esp)
    1bf6:	e8 e0 0f 00 00       	call   2bdb <printf>
	printf(0, "实际位图数据的偏移字节数:%d\n", pBmpHead->bfOffBits);
    1bfb:	8b 45 08             	mov    0x8(%ebp),%eax
    1bfe:	8b 40 0c             	mov    0xc(%eax),%eax
    1c01:	89 44 24 08          	mov    %eax,0x8(%esp)
    1c05:	c7 44 24 04 3c 94 00 	movl   $0x943c,0x4(%esp)
    1c0c:	00 
    1c0d:	c7 04 24 00 00 00 00 	movl   $0x0,(%esp)
    1c14:	e8 c2 0f 00 00       	call   2bdb <printf>
}
    1c19:	c9                   	leave  
    1c1a:	c3                   	ret    

00001c1b <showBmpInforHead>:

void showBmpInforHead(BITMAPINFOHEADER* pBmpInforHead) {
    1c1b:	55                   	push   %ebp
    1c1c:	89 e5                	mov    %esp,%ebp
    1c1e:	83 ec 18             	sub    $0x18,%esp
	printf(0, "位图信息头:\n");
    1c21:	c7 44 24 04 65 94 00 	movl   $0x9465,0x4(%esp)
    1c28:	00 
    1c29:	c7 04 24 00 00 00 00 	movl   $0x0,(%esp)
    1c30:	e8 a6 0f 00 00       	call   2bdb <printf>
	printf(0, "结构体的长度:%d\n", pBmpInforHead->biSize);
    1c35:	8b 45 08             	mov    0x8(%ebp),%eax
    1c38:	8b 00                	mov    (%eax),%eax
    1c3a:	89 44 24 08          	mov    %eax,0x8(%esp)
    1c3e:	c7 44 24 04 77 94 00 	movl   $0x9477,0x4(%esp)
    1c45:	00 
    1c46:	c7 04 24 00 00 00 00 	movl   $0x0,(%esp)
    1c4d:	e8 89 0f 00 00       	call   2bdb <printf>
	printf(0, "位图宽:%d\n", pBmpInforHead->biWidth);
    1c52:	8b 45 08             	mov    0x8(%ebp),%eax
    1c55:	8b 40 04             	mov    0x4(%eax),%eax
    1c58:	89 44 24 08          	mov    %eax,0x8(%esp)
    1c5c:	c7 44 24 04 8e 94 00 	movl   $0x948e,0x4(%esp)
    1c63:	00 
    1c64:	c7 04 24 00 00 00 00 	movl   $0x0,(%esp)
    1c6b:	e8 6b 0f 00 00       	call   2bdb <printf>
	printf(0, "位图高:%d\n", pBmpInforHead->biHeight);
    1c70:	8b 45 08             	mov    0x8(%ebp),%eax
    1c73:	8b 40 08             	mov    0x8(%eax),%eax
    1c76:	89 44 24 08          	mov    %eax,0x8(%esp)
    1c7a:	c7 44 24 04 9c 94 00 	movl   $0x949c,0x4(%esp)
    1c81:	00 
    1c82:	c7 04 24 00 00 00 00 	movl   $0x0,(%esp)
    1c89:	e8 4d 0f 00 00       	call   2bdb <printf>
	printf(0, "biPlanes平面数:%d\n", pBmpInforHead->biPlanes);
    1c8e:	8b 45 08             	mov    0x8(%ebp),%eax
    1c91:	0f b7 40 0c          	movzwl 0xc(%eax),%eax
    1c95:	0f b7 c0             	movzwl %ax,%eax
    1c98:	89 44 24 08          	mov    %eax,0x8(%esp)
    1c9c:	c7 44 24 04 aa 94 00 	movl   $0x94aa,0x4(%esp)
    1ca3:	00 
    1ca4:	c7 04 24 00 00 00 00 	movl   $0x0,(%esp)
    1cab:	e8 2b 0f 00 00       	call   2bdb <printf>
	printf(0, "biBitCount采用颜色位数:%d\n", pBmpInforHead->biBitCount);
    1cb0:	8b 45 08             	mov    0x8(%ebp),%eax
    1cb3:	0f b7 40 0e          	movzwl 0xe(%eax),%eax
    1cb7:	0f b7 c0             	movzwl %ax,%eax
    1cba:	89 44 24 08          	mov    %eax,0x8(%esp)
    1cbe:	c7 44 24 04 c0 94 00 	movl   $0x94c0,0x4(%esp)
    1cc5:	00 
    1cc6:	c7 04 24 00 00 00 00 	movl   $0x0,(%esp)
    1ccd:	e8 09 0f 00 00       	call   2bdb <printf>
	printf(0, "压缩方式:%d\n", pBmpInforHead->biCompression);
    1cd2:	8b 45 08             	mov    0x8(%ebp),%eax
    1cd5:	8b 40 10             	mov    0x10(%eax),%eax
    1cd8:	89 44 24 08          	mov    %eax,0x8(%esp)
    1cdc:	c7 44 24 04 e1 94 00 	movl   $0x94e1,0x4(%esp)
    1ce3:	00 
    1ce4:	c7 04 24 00 00 00 00 	movl   $0x0,(%esp)
    1ceb:	e8 eb 0e 00 00       	call   2bdb <printf>
	printf(0, "biSizeImage实际位图数据占用的字节数:%d\n", pBmpInforHead->biSizeImage);
    1cf0:	8b 45 08             	mov    0x8(%ebp),%eax
    1cf3:	8b 40 14             	mov    0x14(%eax),%eax
    1cf6:	89 44 24 08          	mov    %eax,0x8(%esp)
    1cfa:	c7 44 24 04 f4 94 00 	movl   $0x94f4,0x4(%esp)
    1d01:	00 
    1d02:	c7 04 24 00 00 00 00 	movl   $0x0,(%esp)
    1d09:	e8 cd 0e 00 00       	call   2bdb <printf>
	printf(0, "X方向分辨率:%d\n", pBmpInforHead->biXPelsPerMeter);
    1d0e:	8b 45 08             	mov    0x8(%ebp),%eax
    1d11:	8b 40 18             	mov    0x18(%eax),%eax
    1d14:	89 44 24 08          	mov    %eax,0x8(%esp)
    1d18:	c7 44 24 04 28 95 00 	movl   $0x9528,0x4(%esp)
    1d1f:	00 
    1d20:	c7 04 24 00 00 00 00 	movl   $0x0,(%esp)
    1d27:	e8 af 0e 00 00       	call   2bdb <printf>
	printf(0, "Y方向分辨率:%d\n", pBmpInforHead->biYPelsPerMeter);
    1d2c:	8b 45 08             	mov    0x8(%ebp),%eax
    1d2f:	8b 40 1c             	mov    0x1c(%eax),%eax
    1d32:	89 44 24 08          	mov    %eax,0x8(%esp)
    1d36:	c7 44 24 04 3d 95 00 	movl   $0x953d,0x4(%esp)
    1d3d:	00 
    1d3e:	c7 04 24 00 00 00 00 	movl   $0x0,(%esp)
    1d45:	e8 91 0e 00 00       	call   2bdb <printf>
	printf(0, "使用的颜色数:%d\n", pBmpInforHead->biClrUsed);
    1d4a:	8b 45 08             	mov    0x8(%ebp),%eax
    1d4d:	8b 40 20             	mov    0x20(%eax),%eax
    1d50:	89 44 24 08          	mov    %eax,0x8(%esp)
    1d54:	c7 44 24 04 52 95 00 	movl   $0x9552,0x4(%esp)
    1d5b:	00 
    1d5c:	c7 04 24 00 00 00 00 	movl   $0x0,(%esp)
    1d63:	e8 73 0e 00 00       	call   2bdb <printf>
	printf(0, "重要颜色数:%d\n", pBmpInforHead->biClrImportant);
    1d68:	8b 45 08             	mov    0x8(%ebp),%eax
    1d6b:	8b 40 24             	mov    0x24(%eax),%eax
    1d6e:	89 44 24 08          	mov    %eax,0x8(%esp)
    1d72:	c7 44 24 04 69 95 00 	movl   $0x9569,0x4(%esp)
    1d79:	00 
    1d7a:	c7 04 24 00 00 00 00 	movl   $0x0,(%esp)
    1d81:	e8 55 0e 00 00       	call   2bdb <printf>
}
    1d86:	c9                   	leave  
    1d87:	c3                   	ret    

00001d88 <showRgbQuan>:
void showRgbQuan(RGBQUAD* pRGB) {
    1d88:	55                   	push   %ebp
    1d89:	89 e5                	mov    %esp,%ebp
    1d8b:	83 ec 28             	sub    $0x28,%esp
	printf(0, "(%d,%d,%d) ", pRGB->rgbRed, pRGB->rgbGreen, pRGB->rgbBlue);
    1d8e:	8b 45 08             	mov    0x8(%ebp),%eax
    1d91:	0f b6 00             	movzbl (%eax),%eax
    1d94:	0f b6 c8             	movzbl %al,%ecx
    1d97:	8b 45 08             	mov    0x8(%ebp),%eax
    1d9a:	0f b6 40 01          	movzbl 0x1(%eax),%eax
    1d9e:	0f b6 d0             	movzbl %al,%edx
    1da1:	8b 45 08             	mov    0x8(%ebp),%eax
    1da4:	0f b6 40 02          	movzbl 0x2(%eax),%eax
    1da8:	0f b6 c0             	movzbl %al,%eax
    1dab:	89 4c 24 10          	mov    %ecx,0x10(%esp)
    1daf:	89 54 24 0c          	mov    %edx,0xc(%esp)
    1db3:	89 44 24 08          	mov    %eax,0x8(%esp)
    1db7:	c7 44 24 04 7d 95 00 	movl   $0x957d,0x4(%esp)
    1dbe:	00 
    1dbf:	c7 04 24 00 00 00 00 	movl   $0x0,(%esp)
    1dc6:	e8 10 0e 00 00       	call   2bdb <printf>
}
    1dcb:	c9                   	leave  
    1dcc:	c3                   	ret    

00001dcd <freepic>:

void freepic(PICNODE *pic) {
    1dcd:	55                   	push   %ebp
    1dce:	89 e5                	mov    %esp,%ebp
    1dd0:	83 ec 18             	sub    $0x18,%esp
	free(pic->data);
    1dd3:	8b 45 08             	mov    0x8(%ebp),%eax
    1dd6:	8b 00                	mov    (%eax),%eax
    1dd8:	89 04 24             	mov    %eax,(%esp)
    1ddb:	e8 ae 0f 00 00       	call   2d8e <free>
}
    1de0:	c9                   	leave  
    1de1:	c3                   	ret    

00001de2 <set_icon_alpha>:

void set_icon_alpha(PICNODE *pic) {
    1de2:	55                   	push   %ebp
    1de3:	89 e5                	mov    %esp,%ebp
    1de5:	53                   	push   %ebx
    1de6:	81 ec 84 00 00 00    	sub    $0x84,%esp
	int W = 15;
    1dec:	c7 45 ec 0f 00 00 00 	movl   $0xf,-0x14(%ebp)
	Rect r1 = initRect(0, 0, W, W);
    1df3:	8d 45 dc             	lea    -0x24(%ebp),%eax
    1df6:	8b 55 ec             	mov    -0x14(%ebp),%edx
    1df9:	89 54 24 10          	mov    %edx,0x10(%esp)
    1dfd:	8b 55 ec             	mov    -0x14(%ebp),%edx
    1e00:	89 54 24 0c          	mov    %edx,0xc(%esp)
    1e04:	c7 44 24 08 00 00 00 	movl   $0x0,0x8(%esp)
    1e0b:	00 
    1e0c:	c7 44 24 04 00 00 00 	movl   $0x0,0x4(%esp)
    1e13:	00 
    1e14:	89 04 24             	mov    %eax,(%esp)
    1e17:	e8 80 02 00 00       	call   209c <initRect>
    1e1c:	83 ec 04             	sub    $0x4,%esp
	Rect r2 = initRect(pic->width - W, 0, W, W);
    1e1f:	8b 45 08             	mov    0x8(%ebp),%eax
    1e22:	8b 40 04             	mov    0x4(%eax),%eax
    1e25:	2b 45 ec             	sub    -0x14(%ebp),%eax
    1e28:	89 c2                	mov    %eax,%edx
    1e2a:	8d 45 cc             	lea    -0x34(%ebp),%eax
    1e2d:	8b 4d ec             	mov    -0x14(%ebp),%ecx
    1e30:	89 4c 24 10          	mov    %ecx,0x10(%esp)
    1e34:	8b 4d ec             	mov    -0x14(%ebp),%ecx
    1e37:	89 4c 24 0c          	mov    %ecx,0xc(%esp)
    1e3b:	c7 44 24 08 00 00 00 	movl   $0x0,0x8(%esp)
    1e42:	00 
    1e43:	89 54 24 04          	mov    %edx,0x4(%esp)
    1e47:	89 04 24             	mov    %eax,(%esp)
    1e4a:	e8 4d 02 00 00       	call   209c <initRect>
    1e4f:	83 ec 04             	sub    $0x4,%esp
	Rect r3 = initRect(pic->width - W, pic->height - W, W, W);
    1e52:	8b 45 08             	mov    0x8(%ebp),%eax
    1e55:	8b 40 08             	mov    0x8(%eax),%eax
    1e58:	2b 45 ec             	sub    -0x14(%ebp),%eax
    1e5b:	89 c1                	mov    %eax,%ecx
    1e5d:	8b 45 08             	mov    0x8(%ebp),%eax
    1e60:	8b 40 04             	mov    0x4(%eax),%eax
    1e63:	2b 45 ec             	sub    -0x14(%ebp),%eax
    1e66:	89 c2                	mov    %eax,%edx
    1e68:	8d 45 bc             	lea    -0x44(%ebp),%eax
    1e6b:	8b 5d ec             	mov    -0x14(%ebp),%ebx
    1e6e:	89 5c 24 10          	mov    %ebx,0x10(%esp)
    1e72:	8b 5d ec             	mov    -0x14(%ebp),%ebx
    1e75:	89 5c 24 0c          	mov    %ebx,0xc(%esp)
    1e79:	89 4c 24 08          	mov    %ecx,0x8(%esp)
    1e7d:	89 54 24 04          	mov    %edx,0x4(%esp)
    1e81:	89 04 24             	mov    %eax,(%esp)
    1e84:	e8 13 02 00 00       	call   209c <initRect>
    1e89:	83 ec 04             	sub    $0x4,%esp
	Rect r4 = initRect(0, pic->height - W, W, W);
    1e8c:	8b 45 08             	mov    0x8(%ebp),%eax
    1e8f:	8b 40 08             	mov    0x8(%eax),%eax
    1e92:	2b 45 ec             	sub    -0x14(%ebp),%eax
    1e95:	89 c2                	mov    %eax,%edx
    1e97:	8d 45 ac             	lea    -0x54(%ebp),%eax
    1e9a:	8b 4d ec             	mov    -0x14(%ebp),%ecx
    1e9d:	89 4c 24 10          	mov    %ecx,0x10(%esp)
    1ea1:	8b 4d ec             	mov    -0x14(%ebp),%ecx
    1ea4:	89 4c 24 0c          	mov    %ecx,0xc(%esp)
    1ea8:	89 54 24 08          	mov    %edx,0x8(%esp)
    1eac:	c7 44 24 04 00 00 00 	movl   $0x0,0x4(%esp)
    1eb3:	00 
    1eb4:	89 04 24             	mov    %eax,(%esp)
    1eb7:	e8 e0 01 00 00       	call   209c <initRect>
    1ebc:	83 ec 04             	sub    $0x4,%esp
	Point p;
	int i, j;
	for (i = 0; i < pic->width; i++) {
    1ebf:	c7 45 f4 00 00 00 00 	movl   $0x0,-0xc(%ebp)
    1ec6:	e9 96 01 00 00       	jmp    2061 <set_icon_alpha+0x27f>
		for (j = 0; j < pic->height; j++) {
    1ecb:	c7 45 f0 00 00 00 00 	movl   $0x0,-0x10(%ebp)
    1ed2:	e9 77 01 00 00       	jmp    204e <set_icon_alpha+0x26c>
			p = initPoint(i, j);
    1ed7:	8d 45 a4             	lea    -0x5c(%ebp),%eax
    1eda:	8b 55 f0             	mov    -0x10(%ebp),%edx
    1edd:	89 54 24 08          	mov    %edx,0x8(%esp)
    1ee1:	8b 55 f4             	mov    -0xc(%ebp),%edx
    1ee4:	89 54 24 04          	mov    %edx,0x4(%esp)
    1ee8:	89 04 24             	mov    %eax,(%esp)
    1eeb:	e8 85 01 00 00       	call   2075 <initPoint>
    1ef0:	83 ec 04             	sub    $0x4,%esp
			if (isIn(p, r1) || isIn(p, r2) || isIn(p, r3) || isIn(p, r4)) {
    1ef3:	8b 45 dc             	mov    -0x24(%ebp),%eax
    1ef6:	89 44 24 08          	mov    %eax,0x8(%esp)
    1efa:	8b 45 e0             	mov    -0x20(%ebp),%eax
    1efd:	89 44 24 0c          	mov    %eax,0xc(%esp)
    1f01:	8b 45 e4             	mov    -0x1c(%ebp),%eax
    1f04:	89 44 24 10          	mov    %eax,0x10(%esp)
    1f08:	8b 45 e8             	mov    -0x18(%ebp),%eax
    1f0b:	89 44 24 14          	mov    %eax,0x14(%esp)
    1f0f:	8b 45 a4             	mov    -0x5c(%ebp),%eax
    1f12:	8b 55 a8             	mov    -0x58(%ebp),%edx
    1f15:	89 04 24             	mov    %eax,(%esp)
    1f18:	89 54 24 04          	mov    %edx,0x4(%esp)
    1f1c:	e8 d6 01 00 00       	call   20f7 <isIn>
    1f21:	85 c0                	test   %eax,%eax
    1f23:	0f 85 9a 00 00 00    	jne    1fc3 <set_icon_alpha+0x1e1>
    1f29:	8b 45 cc             	mov    -0x34(%ebp),%eax
    1f2c:	89 44 24 08          	mov    %eax,0x8(%esp)
    1f30:	8b 45 d0             	mov    -0x30(%ebp),%eax
    1f33:	89 44 24 0c          	mov    %eax,0xc(%esp)
    1f37:	8b 45 d4             	mov    -0x2c(%ebp),%eax
    1f3a:	89 44 24 10          	mov    %eax,0x10(%esp)
    1f3e:	8b 45 d8             	mov    -0x28(%ebp),%eax
    1f41:	89 44 24 14          	mov    %eax,0x14(%esp)
    1f45:	8b 45 a4             	mov    -0x5c(%ebp),%eax
    1f48:	8b 55 a8             	mov    -0x58(%ebp),%edx
    1f4b:	89 04 24             	mov    %eax,(%esp)
    1f4e:	89 54 24 04          	mov    %edx,0x4(%esp)
    1f52:	e8 a0 01 00 00       	call   20f7 <isIn>
    1f57:	85 c0                	test   %eax,%eax
    1f59:	75 68                	jne    1fc3 <set_icon_alpha+0x1e1>
    1f5b:	8b 45 bc             	mov    -0x44(%ebp),%eax
    1f5e:	89 44 24 08          	mov    %eax,0x8(%esp)
    1f62:	8b 45 c0             	mov    -0x40(%ebp),%eax
    1f65:	89 44 24 0c          	mov    %eax,0xc(%esp)
    1f69:	8b 45 c4             	mov    -0x3c(%ebp),%eax
    1f6c:	89 44 24 10          	mov    %eax,0x10(%esp)
    1f70:	8b 45 c8             	mov    -0x38(%ebp),%eax
    1f73:	89 44 24 14          	mov    %eax,0x14(%esp)
    1f77:	8b 45 a4             	mov    -0x5c(%ebp),%eax
    1f7a:	8b 55 a8             	mov    -0x58(%ebp),%edx
    1f7d:	89 04 24             	mov    %eax,(%esp)
    1f80:	89 54 24 04          	mov    %edx,0x4(%esp)
    1f84:	e8 6e 01 00 00       	call   20f7 <isIn>
    1f89:	85 c0                	test   %eax,%eax
    1f8b:	75 36                	jne    1fc3 <set_icon_alpha+0x1e1>
    1f8d:	8b 45 ac             	mov    -0x54(%ebp),%eax
    1f90:	89 44 24 08          	mov    %eax,0x8(%esp)
    1f94:	8b 45 b0             	mov    -0x50(%ebp),%eax
    1f97:	89 44 24 0c          	mov    %eax,0xc(%esp)
    1f9b:	8b 45 b4             	mov    -0x4c(%ebp),%eax
    1f9e:	89 44 24 10          	mov    %eax,0x10(%esp)
    1fa2:	8b 45 b8             	mov    -0x48(%ebp),%eax
    1fa5:	89 44 24 14          	mov    %eax,0x14(%esp)
    1fa9:	8b 45 a4             	mov    -0x5c(%ebp),%eax
    1fac:	8b 55 a8             	mov    -0x58(%ebp),%edx
    1faf:	89 04 24             	mov    %eax,(%esp)
    1fb2:	89 54 24 04          	mov    %edx,0x4(%esp)
    1fb6:	e8 3c 01 00 00       	call   20f7 <isIn>
    1fbb:	85 c0                	test   %eax,%eax
    1fbd:	0f 84 87 00 00 00    	je     204a <set_icon_alpha+0x268>
				if (pic->data[j * pic->width + i].rgbBlue == 0xff
    1fc3:	8b 45 08             	mov    0x8(%ebp),%eax
    1fc6:	8b 10                	mov    (%eax),%edx
    1fc8:	8b 45 08             	mov    0x8(%ebp),%eax
    1fcb:	8b 40 04             	mov    0x4(%eax),%eax
    1fce:	0f af 45 f0          	imul   -0x10(%ebp),%eax
    1fd2:	89 c1                	mov    %eax,%ecx
    1fd4:	8b 45 f4             	mov    -0xc(%ebp),%eax
    1fd7:	01 c8                	add    %ecx,%eax
    1fd9:	c1 e0 02             	shl    $0x2,%eax
    1fdc:	01 d0                	add    %edx,%eax
    1fde:	0f b6 00             	movzbl (%eax),%eax
    1fe1:	3c ff                	cmp    $0xff,%al
    1fe3:	75 65                	jne    204a <set_icon_alpha+0x268>
						&& pic->data[j * pic->width + i].rgbGreen == 0xff
    1fe5:	8b 45 08             	mov    0x8(%ebp),%eax
    1fe8:	8b 10                	mov    (%eax),%edx
    1fea:	8b 45 08             	mov    0x8(%ebp),%eax
    1fed:	8b 40 04             	mov    0x4(%eax),%eax
    1ff0:	0f af 45 f0          	imul   -0x10(%ebp),%eax
    1ff4:	89 c1                	mov    %eax,%ecx
    1ff6:	8b 45 f4             	mov    -0xc(%ebp),%eax
    1ff9:	01 c8                	add    %ecx,%eax
    1ffb:	c1 e0 02             	shl    $0x2,%eax
    1ffe:	01 d0                	add    %edx,%eax
    2000:	0f b6 40 01          	movzbl 0x1(%eax),%eax
    2004:	3c ff                	cmp    $0xff,%al
    2006:	75 42                	jne    204a <set_icon_alpha+0x268>
						&& pic->data[j * pic->width + i].rgbRed == 0xff) {
    2008:	8b 45 08             	mov    0x8(%ebp),%eax
    200b:	8b 10                	mov    (%eax),%edx
    200d:	8b 45 08             	mov    0x8(%ebp),%eax
    2010:	8b 40 04             	mov    0x4(%eax),%eax
    2013:	0f af 45 f0          	imul   -0x10(%ebp),%eax
    2017:	89 c1                	mov    %eax,%ecx
    2019:	8b 45 f4             	mov    -0xc(%ebp),%eax
    201c:	01 c8                	add    %ecx,%eax
    201e:	c1 e0 02             	shl    $0x2,%eax
    2021:	01 d0                	add    %edx,%eax
    2023:	0f b6 40 02          	movzbl 0x2(%eax),%eax
    2027:	3c ff                	cmp    $0xff,%al
    2029:	75 1f                	jne    204a <set_icon_alpha+0x268>
					pic->data[j * pic->width + i].rgbReserved = 1;
    202b:	8b 45 08             	mov    0x8(%ebp),%eax
    202e:	8b 10                	mov    (%eax),%edx
    2030:	8b 45 08             	mov    0x8(%ebp),%eax
    2033:	8b 40 04             	mov    0x4(%eax),%eax
    2036:	0f af 45 f0          	imul   -0x10(%ebp),%eax
    203a:	89 c1                	mov    %eax,%ecx
    203c:	8b 45 f4             	mov    -0xc(%ebp),%eax
    203f:	01 c8                	add    %ecx,%eax
    2041:	c1 e0 02             	shl    $0x2,%eax
    2044:	01 d0                	add    %edx,%eax
    2046:	c6 40 03 01          	movb   $0x1,0x3(%eax)
	Rect r3 = initRect(pic->width - W, pic->height - W, W, W);
	Rect r4 = initRect(0, pic->height - W, W, W);
	Point p;
	int i, j;
	for (i = 0; i < pic->width; i++) {
		for (j = 0; j < pic->height; j++) {
    204a:	83 45 f0 01          	addl   $0x1,-0x10(%ebp)
    204e:	8b 45 08             	mov    0x8(%ebp),%eax
    2051:	8b 40 08             	mov    0x8(%eax),%eax
    2054:	3b 45 f0             	cmp    -0x10(%ebp),%eax
    2057:	0f 8f 7a fe ff ff    	jg     1ed7 <set_icon_alpha+0xf5>
	Rect r2 = initRect(pic->width - W, 0, W, W);
	Rect r3 = initRect(pic->width - W, pic->height - W, W, W);
	Rect r4 = initRect(0, pic->height - W, W, W);
	Point p;
	int i, j;
	for (i = 0; i < pic->width; i++) {
    205d:	83 45 f4 01          	addl   $0x1,-0xc(%ebp)
    2061:	8b 45 08             	mov    0x8(%ebp),%eax
    2064:	8b 40 04             	mov    0x4(%eax),%eax
    2067:	3b 45 f4             	cmp    -0xc(%ebp),%eax
    206a:	0f 8f 5b fe ff ff    	jg     1ecb <set_icon_alpha+0xe9>
					pic->data[j * pic->width + i].rgbReserved = 1;
				}
			}
		}
	}
}
    2070:	8b 5d fc             	mov    -0x4(%ebp),%ebx
    2073:	c9                   	leave  
    2074:	c3                   	ret    

00002075 <initPoint>:
#include "message.h"
#include "types.h"
#include "user.h"
#include "finder.h"
Point initPoint(int x, int y)
{
    2075:	55                   	push   %ebp
    2076:	89 e5                	mov    %esp,%ebp
    2078:	83 ec 10             	sub    $0x10,%esp
	Point p;
	p.x = x;
    207b:	8b 45 0c             	mov    0xc(%ebp),%eax
    207e:	89 45 f8             	mov    %eax,-0x8(%ebp)
	p.y = y;
    2081:	8b 45 10             	mov    0x10(%ebp),%eax
    2084:	89 45 fc             	mov    %eax,-0x4(%ebp)
	return p;
    2087:	8b 4d 08             	mov    0x8(%ebp),%ecx
    208a:	8b 45 f8             	mov    -0x8(%ebp),%eax
    208d:	8b 55 fc             	mov    -0x4(%ebp),%edx
    2090:	89 01                	mov    %eax,(%ecx)
    2092:	89 51 04             	mov    %edx,0x4(%ecx)
}
    2095:	8b 45 08             	mov    0x8(%ebp),%eax
    2098:	c9                   	leave  
    2099:	c2 04 00             	ret    $0x4

0000209c <initRect>:

Rect initRect(int x, int y, int w, int h)
{
    209c:	55                   	push   %ebp
    209d:	89 e5                	mov    %esp,%ebp
    209f:	83 ec 24             	sub    $0x24,%esp
	Rect r;
	r.start = initPoint(x, y);
    20a2:	8d 45 e8             	lea    -0x18(%ebp),%eax
    20a5:	8b 55 10             	mov    0x10(%ebp),%edx
    20a8:	89 54 24 08          	mov    %edx,0x8(%esp)
    20ac:	8b 55 0c             	mov    0xc(%ebp),%edx
    20af:	89 54 24 04          	mov    %edx,0x4(%esp)
    20b3:	89 04 24             	mov    %eax,(%esp)
    20b6:	e8 ba ff ff ff       	call   2075 <initPoint>
    20bb:	83 ec 04             	sub    $0x4,%esp
    20be:	8b 45 e8             	mov    -0x18(%ebp),%eax
    20c1:	8b 55 ec             	mov    -0x14(%ebp),%edx
    20c4:	89 45 f0             	mov    %eax,-0x10(%ebp)
    20c7:	89 55 f4             	mov    %edx,-0xc(%ebp)
	r.width = w;
    20ca:	8b 45 14             	mov    0x14(%ebp),%eax
    20cd:	89 45 f8             	mov    %eax,-0x8(%ebp)
	r.height = h;
    20d0:	8b 45 18             	mov    0x18(%ebp),%eax
    20d3:	89 45 fc             	mov    %eax,-0x4(%ebp)
	return r;
    20d6:	8b 45 08             	mov    0x8(%ebp),%eax
    20d9:	8b 55 f0             	mov    -0x10(%ebp),%edx
    20dc:	89 10                	mov    %edx,(%eax)
    20de:	8b 55 f4             	mov    -0xc(%ebp),%edx
    20e1:	89 50 04             	mov    %edx,0x4(%eax)
    20e4:	8b 55 f8             	mov    -0x8(%ebp),%edx
    20e7:	89 50 08             	mov    %edx,0x8(%eax)
    20ea:	8b 55 fc             	mov    -0x4(%ebp),%edx
    20ed:	89 50 0c             	mov    %edx,0xc(%eax)
}
    20f0:	8b 45 08             	mov    0x8(%ebp),%eax
    20f3:	c9                   	leave  
    20f4:	c2 04 00             	ret    $0x4

000020f7 <isIn>:

int isIn(Point p, Rect r)
{
    20f7:	55                   	push   %ebp
    20f8:	89 e5                	mov    %esp,%ebp
	return (p.x >= r.start.x) && (p.x < r.start.x+r.width)
    20fa:	8b 55 08             	mov    0x8(%ebp),%edx
    20fd:	8b 45 10             	mov    0x10(%ebp),%eax
			&& (p.y >= r.start.y) && (p.y < r.start.y+r.height);
    2100:	39 c2                	cmp    %eax,%edx
    2102:	7c 2f                	jl     2133 <isIn+0x3c>
	return r;
}

int isIn(Point p, Rect r)
{
	return (p.x >= r.start.x) && (p.x < r.start.x+r.width)
    2104:	8b 45 08             	mov    0x8(%ebp),%eax
    2107:	8b 4d 10             	mov    0x10(%ebp),%ecx
    210a:	8b 55 18             	mov    0x18(%ebp),%edx
    210d:	01 ca                	add    %ecx,%edx
    210f:	39 d0                	cmp    %edx,%eax
    2111:	7d 20                	jge    2133 <isIn+0x3c>
			&& (p.y >= r.start.y) && (p.y < r.start.y+r.height);
    2113:	8b 55 0c             	mov    0xc(%ebp),%edx
    2116:	8b 45 14             	mov    0x14(%ebp),%eax
    2119:	39 c2                	cmp    %eax,%edx
    211b:	7c 16                	jl     2133 <isIn+0x3c>
    211d:	8b 45 0c             	mov    0xc(%ebp),%eax
    2120:	8b 4d 14             	mov    0x14(%ebp),%ecx
    2123:	8b 55 1c             	mov    0x1c(%ebp),%edx
    2126:	01 ca                	add    %ecx,%edx
    2128:	39 d0                	cmp    %edx,%eax
    212a:	7d 07                	jge    2133 <isIn+0x3c>
    212c:	b8 01 00 00 00       	mov    $0x1,%eax
    2131:	eb 05                	jmp    2138 <isIn+0x41>
    2133:	b8 00 00 00 00       	mov    $0x0,%eax
}
    2138:	5d                   	pop    %ebp
    2139:	c3                   	ret    

0000213a <initClickManager>:

ClickableManager initClickManager(struct Context c)
{
    213a:	55                   	push   %ebp
    213b:	89 e5                	mov    %esp,%ebp
    213d:	83 ec 20             	sub    $0x20,%esp
	ClickableManager cm;
	cm.left_click = 0;
    2140:	c7 45 ec 00 00 00 00 	movl   $0x0,-0x14(%ebp)
	cm.double_click = 0;
    2147:	c7 45 f0 00 00 00 00 	movl   $0x0,-0x10(%ebp)
	cm.right_click = 0;
    214e:	c7 45 f4 00 00 00 00 	movl   $0x0,-0xc(%ebp)
	cm.wndWidth = c.width;
    2155:	8b 45 10             	mov    0x10(%ebp),%eax
    2158:	89 45 f8             	mov    %eax,-0x8(%ebp)
	cm.wndHeight = c.height;
    215b:	8b 45 14             	mov    0x14(%ebp),%eax
    215e:	89 45 fc             	mov    %eax,-0x4(%ebp)
	return cm;
    2161:	8b 45 08             	mov    0x8(%ebp),%eax
    2164:	8b 55 ec             	mov    -0x14(%ebp),%edx
    2167:	89 10                	mov    %edx,(%eax)
    2169:	8b 55 f0             	mov    -0x10(%ebp),%edx
    216c:	89 50 04             	mov    %edx,0x4(%eax)
    216f:	8b 55 f4             	mov    -0xc(%ebp),%edx
    2172:	89 50 08             	mov    %edx,0x8(%eax)
    2175:	8b 55 f8             	mov    -0x8(%ebp),%edx
    2178:	89 50 0c             	mov    %edx,0xc(%eax)
    217b:	8b 55 fc             	mov    -0x4(%ebp),%edx
    217e:	89 50 10             	mov    %edx,0x10(%eax)
}
    2181:	8b 45 08             	mov    0x8(%ebp),%eax
    2184:	c9                   	leave  
    2185:	c2 04 00             	ret    $0x4

00002188 <createClickable>:

void createClickable(ClickableManager *c, Rect r, int MsgType, Handler h)
{
    2188:	55                   	push   %ebp
    2189:	89 e5                	mov    %esp,%ebp
    218b:	83 ec 28             	sub    $0x28,%esp
	switch (MsgType)
    218e:	8b 45 1c             	mov    0x1c(%ebp),%eax
    2191:	83 f8 03             	cmp    $0x3,%eax
    2194:	74 72                	je     2208 <createClickable+0x80>
    2196:	83 f8 04             	cmp    $0x4,%eax
    2199:	74 0a                	je     21a5 <createClickable+0x1d>
    219b:	83 f8 02             	cmp    $0x2,%eax
    219e:	74 38                	je     21d8 <createClickable+0x50>
    21a0:	e9 96 00 00 00       	jmp    223b <createClickable+0xb3>
	{
		case MSG_DOUBLECLICK:
			addClickable(&c->double_click, r, h);
    21a5:	8b 45 08             	mov    0x8(%ebp),%eax
    21a8:	8d 50 04             	lea    0x4(%eax),%edx
    21ab:	8b 45 20             	mov    0x20(%ebp),%eax
    21ae:	89 44 24 14          	mov    %eax,0x14(%esp)
    21b2:	8b 45 0c             	mov    0xc(%ebp),%eax
    21b5:	89 44 24 04          	mov    %eax,0x4(%esp)
    21b9:	8b 45 10             	mov    0x10(%ebp),%eax
    21bc:	89 44 24 08          	mov    %eax,0x8(%esp)
    21c0:	8b 45 14             	mov    0x14(%ebp),%eax
    21c3:	89 44 24 0c          	mov    %eax,0xc(%esp)
    21c7:	8b 45 18             	mov    0x18(%ebp),%eax
    21ca:	89 44 24 10          	mov    %eax,0x10(%esp)
    21ce:	89 14 24             	mov    %edx,(%esp)
    21d1:	e8 7c 00 00 00       	call   2252 <addClickable>
	        break;
    21d6:	eb 78                	jmp    2250 <createClickable+0xc8>
	    case MSG_LPRESS:
	    	addClickable(&c->left_click, r, h);
    21d8:	8b 45 08             	mov    0x8(%ebp),%eax
    21db:	8b 55 20             	mov    0x20(%ebp),%edx
    21de:	89 54 24 14          	mov    %edx,0x14(%esp)
    21e2:	8b 55 0c             	mov    0xc(%ebp),%edx
    21e5:	89 54 24 04          	mov    %edx,0x4(%esp)
    21e9:	8b 55 10             	mov    0x10(%ebp),%edx
    21ec:	89 54 24 08          	mov    %edx,0x8(%esp)
    21f0:	8b 55 14             	mov    0x14(%ebp),%edx
    21f3:	89 54 24 0c          	mov    %edx,0xc(%esp)
    21f7:	8b 55 18             	mov    0x18(%ebp),%edx
    21fa:	89 54 24 10          	mov    %edx,0x10(%esp)
    21fe:	89 04 24             	mov    %eax,(%esp)
    2201:	e8 4c 00 00 00       	call   2252 <addClickable>
	    	break;
    2206:	eb 48                	jmp    2250 <createClickable+0xc8>
	    case MSG_RPRESS:
	    	addClickable(&c->right_click, r, h);
    2208:	8b 45 08             	mov    0x8(%ebp),%eax
    220b:	8d 50 08             	lea    0x8(%eax),%edx
    220e:	8b 45 20             	mov    0x20(%ebp),%eax
    2211:	89 44 24 14          	mov    %eax,0x14(%esp)
    2215:	8b 45 0c             	mov    0xc(%ebp),%eax
    2218:	89 44 24 04          	mov    %eax,0x4(%esp)
    221c:	8b 45 10             	mov    0x10(%ebp),%eax
    221f:	89 44 24 08          	mov    %eax,0x8(%esp)
    2223:	8b 45 14             	mov    0x14(%ebp),%eax
    2226:	89 44 24 0c          	mov    %eax,0xc(%esp)
    222a:	8b 45 18             	mov    0x18(%ebp),%eax
    222d:	89 44 24 10          	mov    %eax,0x10(%esp)
    2231:	89 14 24             	mov    %edx,(%esp)
    2234:	e8 19 00 00 00       	call   2252 <addClickable>
	    	break;
    2239:	eb 15                	jmp    2250 <createClickable+0xc8>
	    default:
	    	printf(0, "向clickable传递了非鼠标点击事件！");
    223b:	c7 44 24 04 8c 95 00 	movl   $0x958c,0x4(%esp)
    2242:	00 
    2243:	c7 04 24 00 00 00 00 	movl   $0x0,(%esp)
    224a:	e8 8c 09 00 00       	call   2bdb <printf>
	    	break;
    224f:	90                   	nop
	}
}
    2250:	c9                   	leave  
    2251:	c3                   	ret    

00002252 <addClickable>:

void addClickable(Clickable **head, Rect r, Handler h)
{
    2252:	55                   	push   %ebp
    2253:	89 e5                	mov    %esp,%ebp
    2255:	83 ec 28             	sub    $0x28,%esp
	//printf(0, "adding clickable\n");
	Clickable *c = (Clickable *)malloc(sizeof(Clickable));
    2258:	c7 04 24 18 00 00 00 	movl   $0x18,(%esp)
    225f:	e8 63 0c 00 00       	call   2ec7 <malloc>
    2264:	89 45 f4             	mov    %eax,-0xc(%ebp)
	c->area = r;
    2267:	8b 45 f4             	mov    -0xc(%ebp),%eax
    226a:	8b 55 0c             	mov    0xc(%ebp),%edx
    226d:	89 10                	mov    %edx,(%eax)
    226f:	8b 55 10             	mov    0x10(%ebp),%edx
    2272:	89 50 04             	mov    %edx,0x4(%eax)
    2275:	8b 55 14             	mov    0x14(%ebp),%edx
    2278:	89 50 08             	mov    %edx,0x8(%eax)
    227b:	8b 55 18             	mov    0x18(%ebp),%edx
    227e:	89 50 0c             	mov    %edx,0xc(%eax)
	c->handler = h;
    2281:	8b 45 f4             	mov    -0xc(%ebp),%eax
    2284:	8b 55 1c             	mov    0x1c(%ebp),%edx
    2287:	89 50 10             	mov    %edx,0x10(%eax)
	c->next = *head;
    228a:	8b 45 08             	mov    0x8(%ebp),%eax
    228d:	8b 10                	mov    (%eax),%edx
    228f:	8b 45 f4             	mov    -0xc(%ebp),%eax
    2292:	89 50 14             	mov    %edx,0x14(%eax)
	*head = c;
    2295:	8b 45 08             	mov    0x8(%ebp),%eax
    2298:	8b 55 f4             	mov    -0xc(%ebp),%edx
    229b:	89 10                	mov    %edx,(%eax)
}
    229d:	c9                   	leave  
    229e:	c3                   	ret    

0000229f <deleteClickable>:

void deleteClickable(Clickable **head, Rect region)
{
    229f:	55                   	push   %ebp
    22a0:	89 e5                	mov    %esp,%ebp
    22a2:	83 ec 38             	sub    $0x38,%esp
	Clickable *prev, *cur, *temp;
	prev = cur = *head;
    22a5:	8b 45 08             	mov    0x8(%ebp),%eax
    22a8:	8b 00                	mov    (%eax),%eax
    22aa:	89 45 f0             	mov    %eax,-0x10(%ebp)
    22ad:	8b 45 f0             	mov    -0x10(%ebp),%eax
    22b0:	89 45 f4             	mov    %eax,-0xc(%ebp)
	while (cur != 0)
    22b3:	e9 bb 00 00 00       	jmp    2373 <deleteClickable+0xd4>
	{
		if (isIn(cur->area.start, region))
    22b8:	8b 45 0c             	mov    0xc(%ebp),%eax
    22bb:	89 44 24 08          	mov    %eax,0x8(%esp)
    22bf:	8b 45 10             	mov    0x10(%ebp),%eax
    22c2:	89 44 24 0c          	mov    %eax,0xc(%esp)
    22c6:	8b 45 14             	mov    0x14(%ebp),%eax
    22c9:	89 44 24 10          	mov    %eax,0x10(%esp)
    22cd:	8b 45 18             	mov    0x18(%ebp),%eax
    22d0:	89 44 24 14          	mov    %eax,0x14(%esp)
    22d4:	8b 45 f0             	mov    -0x10(%ebp),%eax
    22d7:	8b 50 04             	mov    0x4(%eax),%edx
    22da:	8b 00                	mov    (%eax),%eax
    22dc:	89 04 24             	mov    %eax,(%esp)
    22df:	89 54 24 04          	mov    %edx,0x4(%esp)
    22e3:	e8 0f fe ff ff       	call   20f7 <isIn>
    22e8:	85 c0                	test   %eax,%eax
    22ea:	74 60                	je     234c <deleteClickable+0xad>
		{
			//如果当前指针指向头部
			if (cur == *head)
    22ec:	8b 45 08             	mov    0x8(%ebp),%eax
    22ef:	8b 00                	mov    (%eax),%eax
    22f1:	3b 45 f0             	cmp    -0x10(%ebp),%eax
    22f4:	75 2e                	jne    2324 <deleteClickable+0x85>
			{
				//删除头节点
				temp = *head;
    22f6:	8b 45 08             	mov    0x8(%ebp),%eax
    22f9:	8b 00                	mov    (%eax),%eax
    22fb:	89 45 ec             	mov    %eax,-0x14(%ebp)
				*head = cur->next;
    22fe:	8b 45 f0             	mov    -0x10(%ebp),%eax
    2301:	8b 50 14             	mov    0x14(%eax),%edx
    2304:	8b 45 08             	mov    0x8(%ebp),%eax
    2307:	89 10                	mov    %edx,(%eax)
				cur = prev = *head;
    2309:	8b 45 08             	mov    0x8(%ebp),%eax
    230c:	8b 00                	mov    (%eax),%eax
    230e:	89 45 f4             	mov    %eax,-0xc(%ebp)
    2311:	8b 45 f4             	mov    -0xc(%ebp),%eax
    2314:	89 45 f0             	mov    %eax,-0x10(%ebp)
				free(temp);
    2317:	8b 45 ec             	mov    -0x14(%ebp),%eax
    231a:	89 04 24             	mov    %eax,(%esp)
    231d:	e8 6c 0a 00 00       	call   2d8e <free>
    2322:	eb 4f                	jmp    2373 <deleteClickable+0xd4>
			}
			else
			{
				//删除当前节点
				prev->next = cur->next;
    2324:	8b 45 f0             	mov    -0x10(%ebp),%eax
    2327:	8b 50 14             	mov    0x14(%eax),%edx
    232a:	8b 45 f4             	mov    -0xc(%ebp),%eax
    232d:	89 50 14             	mov    %edx,0x14(%eax)
				temp = cur;
    2330:	8b 45 f0             	mov    -0x10(%ebp),%eax
    2333:	89 45 ec             	mov    %eax,-0x14(%ebp)
				cur = cur->next;
    2336:	8b 45 f0             	mov    -0x10(%ebp),%eax
    2339:	8b 40 14             	mov    0x14(%eax),%eax
    233c:	89 45 f0             	mov    %eax,-0x10(%ebp)
				free(temp);
    233f:	8b 45 ec             	mov    -0x14(%ebp),%eax
    2342:	89 04 24             	mov    %eax,(%esp)
    2345:	e8 44 0a 00 00       	call   2d8e <free>
    234a:	eb 27                	jmp    2373 <deleteClickable+0xd4>
			}
		}
		else
		{
			//如果当前节点是头节点，
			if (cur == *head)
    234c:	8b 45 08             	mov    0x8(%ebp),%eax
    234f:	8b 00                	mov    (%eax),%eax
    2351:	3b 45 f0             	cmp    -0x10(%ebp),%eax
    2354:	75 0b                	jne    2361 <deleteClickable+0xc2>
			{
				cur = cur->next;
    2356:	8b 45 f0             	mov    -0x10(%ebp),%eax
    2359:	8b 40 14             	mov    0x14(%eax),%eax
    235c:	89 45 f0             	mov    %eax,-0x10(%ebp)
    235f:	eb 12                	jmp    2373 <deleteClickable+0xd4>
			}
			else
			{
				cur = cur->next;
    2361:	8b 45 f0             	mov    -0x10(%ebp),%eax
    2364:	8b 40 14             	mov    0x14(%eax),%eax
    2367:	89 45 f0             	mov    %eax,-0x10(%ebp)
				prev = prev->next;
    236a:	8b 45 f4             	mov    -0xc(%ebp),%eax
    236d:	8b 40 14             	mov    0x14(%eax),%eax
    2370:	89 45 f4             	mov    %eax,-0xc(%ebp)

void deleteClickable(Clickable **head, Rect region)
{
	Clickable *prev, *cur, *temp;
	prev = cur = *head;
	while (cur != 0)
    2373:	83 7d f0 00          	cmpl   $0x0,-0x10(%ebp)
    2377:	0f 85 3b ff ff ff    	jne    22b8 <deleteClickable+0x19>
				cur = cur->next;
				prev = prev->next;
			}
		}
	}
}
    237d:	c9                   	leave  
    237e:	c3                   	ret    

0000237f <executeHandler>:

int executeHandler(Clickable *head, Point click)
{
    237f:	55                   	push   %ebp
    2380:	89 e5                	mov    %esp,%ebp
    2382:	83 ec 38             	sub    $0x38,%esp
	Clickable *cur = head;
    2385:	8b 45 08             	mov    0x8(%ebp),%eax
    2388:	89 45 f4             	mov    %eax,-0xc(%ebp)
	while (cur != 0)
    238b:	eb 6d                	jmp    23fa <executeHandler+0x7b>
	{
		if (isIn(click, cur->area))
    238d:	8b 45 f4             	mov    -0xc(%ebp),%eax
    2390:	8b 10                	mov    (%eax),%edx
    2392:	89 54 24 08          	mov    %edx,0x8(%esp)
    2396:	8b 50 04             	mov    0x4(%eax),%edx
    2399:	89 54 24 0c          	mov    %edx,0xc(%esp)
    239d:	8b 50 08             	mov    0x8(%eax),%edx
    23a0:	89 54 24 10          	mov    %edx,0x10(%esp)
    23a4:	8b 40 0c             	mov    0xc(%eax),%eax
    23a7:	89 44 24 14          	mov    %eax,0x14(%esp)
    23ab:	8b 45 0c             	mov    0xc(%ebp),%eax
    23ae:	8b 55 10             	mov    0x10(%ebp),%edx
    23b1:	89 04 24             	mov    %eax,(%esp)
    23b4:	89 54 24 04          	mov    %edx,0x4(%esp)
    23b8:	e8 3a fd ff ff       	call   20f7 <isIn>
    23bd:	85 c0                	test   %eax,%eax
    23bf:	74 30                	je     23f1 <executeHandler+0x72>
		{
			renaming = 0;
    23c1:	c7 05 c4 01 01 00 00 	movl   $0x0,0x101c4
    23c8:	00 00 00 
			isSearching = 0;
    23cb:	c7 05 c0 01 01 00 00 	movl   $0x0,0x101c0
    23d2:	00 00 00 
			cur->handler(click);
    23d5:	8b 45 f4             	mov    -0xc(%ebp),%eax
    23d8:	8b 48 10             	mov    0x10(%eax),%ecx
    23db:	8b 45 0c             	mov    0xc(%ebp),%eax
    23de:	8b 55 10             	mov    0x10(%ebp),%edx
    23e1:	89 04 24             	mov    %eax,(%esp)
    23e4:	89 54 24 04          	mov    %edx,0x4(%esp)
    23e8:	ff d1                	call   *%ecx
			return 1;
    23ea:	b8 01 00 00 00       	mov    $0x1,%eax
    23ef:	eb 4d                	jmp    243e <executeHandler+0xbf>
		}
		cur = cur->next;
    23f1:	8b 45 f4             	mov    -0xc(%ebp),%eax
    23f4:	8b 40 14             	mov    0x14(%eax),%eax
    23f7:	89 45 f4             	mov    %eax,-0xc(%ebp)
}

int executeHandler(Clickable *head, Point click)
{
	Clickable *cur = head;
	while (cur != 0)
    23fa:	83 7d f4 00          	cmpl   $0x0,-0xc(%ebp)
    23fe:	75 8d                	jne    238d <executeHandler+0xe>
			cur->handler(click);
			return 1;
		}
		cur = cur->next;
	}
	isSearching = 0;
    2400:	c7 05 c0 01 01 00 00 	movl   $0x0,0x101c0
    2407:	00 00 00 
	if (renaming == 1){
    240a:	a1 c4 01 01 00       	mov    0x101c4,%eax
    240f:	83 f8 01             	cmp    $0x1,%eax
    2412:	75 11                	jne    2425 <executeHandler+0xa6>
		renaming = 0;
    2414:	c7 05 c4 01 01 00 00 	movl   $0x0,0x101c4
    241b:	00 00 00 
		return 1;
    241e:	b8 01 00 00 00       	mov    $0x1,%eax
    2423:	eb 19                	jmp    243e <executeHandler+0xbf>
	}
	printf(0, "execute: none!\n");
    2425:	c7 44 24 04 ba 95 00 	movl   $0x95ba,0x4(%esp)
    242c:	00 
    242d:	c7 04 24 00 00 00 00 	movl   $0x0,(%esp)
    2434:	e8 a2 07 00 00       	call   2bdb <printf>
	return 0;
    2439:	b8 00 00 00 00       	mov    $0x0,%eax
}
    243e:	c9                   	leave  
    243f:	c3                   	ret    

00002440 <printClickable>:

void printClickable(Clickable *c)
{
    2440:	55                   	push   %ebp
    2441:	89 e5                	mov    %esp,%ebp
    2443:	53                   	push   %ebx
    2444:	83 ec 24             	sub    $0x24,%esp
	printf(0, "(%d, %d, %d, %d)\n", c->area.start.x, c->area.start.y, c->area.width, c->area.height);
    2447:	8b 45 08             	mov    0x8(%ebp),%eax
    244a:	8b 58 0c             	mov    0xc(%eax),%ebx
    244d:	8b 45 08             	mov    0x8(%ebp),%eax
    2450:	8b 48 08             	mov    0x8(%eax),%ecx
    2453:	8b 45 08             	mov    0x8(%ebp),%eax
    2456:	8b 50 04             	mov    0x4(%eax),%edx
    2459:	8b 45 08             	mov    0x8(%ebp),%eax
    245c:	8b 00                	mov    (%eax),%eax
    245e:	89 5c 24 14          	mov    %ebx,0x14(%esp)
    2462:	89 4c 24 10          	mov    %ecx,0x10(%esp)
    2466:	89 54 24 0c          	mov    %edx,0xc(%esp)
    246a:	89 44 24 08          	mov    %eax,0x8(%esp)
    246e:	c7 44 24 04 ca 95 00 	movl   $0x95ca,0x4(%esp)
    2475:	00 
    2476:	c7 04 24 00 00 00 00 	movl   $0x0,(%esp)
    247d:	e8 59 07 00 00       	call   2bdb <printf>
}
    2482:	83 c4 24             	add    $0x24,%esp
    2485:	5b                   	pop    %ebx
    2486:	5d                   	pop    %ebp
    2487:	c3                   	ret    

00002488 <printClickableList>:

void printClickableList(Clickable *head)
{
    2488:	55                   	push   %ebp
    2489:	89 e5                	mov    %esp,%ebp
    248b:	83 ec 28             	sub    $0x28,%esp
	Clickable *cur = head;
    248e:	8b 45 08             	mov    0x8(%ebp),%eax
    2491:	89 45 f4             	mov    %eax,-0xc(%ebp)
	printf(0, "Clickable List:\n");
    2494:	c7 44 24 04 dc 95 00 	movl   $0x95dc,0x4(%esp)
    249b:	00 
    249c:	c7 04 24 00 00 00 00 	movl   $0x0,(%esp)
    24a3:	e8 33 07 00 00       	call   2bdb <printf>
	while(cur != 0)
    24a8:	eb 14                	jmp    24be <printClickableList+0x36>
	{
		printClickable(cur);
    24aa:	8b 45 f4             	mov    -0xc(%ebp),%eax
    24ad:	89 04 24             	mov    %eax,(%esp)
    24b0:	e8 8b ff ff ff       	call   2440 <printClickable>
		cur = cur->next;
    24b5:	8b 45 f4             	mov    -0xc(%ebp),%eax
    24b8:	8b 40 14             	mov    0x14(%eax),%eax
    24bb:	89 45 f4             	mov    %eax,-0xc(%ebp)

void printClickableList(Clickable *head)
{
	Clickable *cur = head;
	printf(0, "Clickable List:\n");
	while(cur != 0)
    24be:	83 7d f4 00          	cmpl   $0x0,-0xc(%ebp)
    24c2:	75 e6                	jne    24aa <printClickableList+0x22>
	{
		printClickable(cur);
		cur = cur->next;
	}
	printf(0, "\n");
    24c4:	c7 44 24 04 ed 95 00 	movl   $0x95ed,0x4(%esp)
    24cb:	00 
    24cc:	c7 04 24 00 00 00 00 	movl   $0x0,(%esp)
    24d3:	e8 03 07 00 00       	call   2bdb <printf>
}
    24d8:	c9                   	leave  
    24d9:	c3                   	ret    

000024da <testHanler>:

void testHanler(struct Point p)
{
    24da:	55                   	push   %ebp
    24db:	89 e5                	mov    %esp,%ebp
    24dd:	83 ec 18             	sub    $0x18,%esp
	printf(0, "execute: (%d, %d)!\n", p.x, p.y);
    24e0:	8b 55 0c             	mov    0xc(%ebp),%edx
    24e3:	8b 45 08             	mov    0x8(%ebp),%eax
    24e6:	89 54 24 0c          	mov    %edx,0xc(%esp)
    24ea:	89 44 24 08          	mov    %eax,0x8(%esp)
    24ee:	c7 44 24 04 ef 95 00 	movl   $0x95ef,0x4(%esp)
    24f5:	00 
    24f6:	c7 04 24 00 00 00 00 	movl   $0x0,(%esp)
    24fd:	e8 d9 06 00 00       	call   2bdb <printf>
}
    2502:	c9                   	leave  
    2503:	c3                   	ret    

00002504 <testClickable>:
void testClickable(struct Context c)
{
    2504:	55                   	push   %ebp
    2505:	89 e5                	mov    %esp,%ebp
    2507:	81 ec 98 00 00 00    	sub    $0x98,%esp
	ClickableManager cm = initClickManager(c);
    250d:	8d 45 e4             	lea    -0x1c(%ebp),%eax
    2510:	8b 55 08             	mov    0x8(%ebp),%edx
    2513:	89 54 24 04          	mov    %edx,0x4(%esp)
    2517:	8b 55 0c             	mov    0xc(%ebp),%edx
    251a:	89 54 24 08          	mov    %edx,0x8(%esp)
    251e:	8b 55 10             	mov    0x10(%ebp),%edx
    2521:	89 54 24 0c          	mov    %edx,0xc(%esp)
    2525:	89 04 24             	mov    %eax,(%esp)
    2528:	e8 0d fc ff ff       	call   213a <initClickManager>
    252d:	83 ec 04             	sub    $0x4,%esp

	Rect r1 = initRect(5,5,20,20);
    2530:	8d 45 d4             	lea    -0x2c(%ebp),%eax
    2533:	c7 44 24 10 14 00 00 	movl   $0x14,0x10(%esp)
    253a:	00 
    253b:	c7 44 24 0c 14 00 00 	movl   $0x14,0xc(%esp)
    2542:	00 
    2543:	c7 44 24 08 05 00 00 	movl   $0x5,0x8(%esp)
    254a:	00 
    254b:	c7 44 24 04 05 00 00 	movl   $0x5,0x4(%esp)
    2552:	00 
    2553:	89 04 24             	mov    %eax,(%esp)
    2556:	e8 41 fb ff ff       	call   209c <initRect>
    255b:	83 ec 04             	sub    $0x4,%esp
	Rect r2 = initRect(20,20,20,20);
    255e:	8d 45 c4             	lea    -0x3c(%ebp),%eax
    2561:	c7 44 24 10 14 00 00 	movl   $0x14,0x10(%esp)
    2568:	00 
    2569:	c7 44 24 0c 14 00 00 	movl   $0x14,0xc(%esp)
    2570:	00 
    2571:	c7 44 24 08 14 00 00 	movl   $0x14,0x8(%esp)
    2578:	00 
    2579:	c7 44 24 04 14 00 00 	movl   $0x14,0x4(%esp)
    2580:	00 
    2581:	89 04 24             	mov    %eax,(%esp)
    2584:	e8 13 fb ff ff       	call   209c <initRect>
    2589:	83 ec 04             	sub    $0x4,%esp
	Rect r3 = initRect(50,50,15,15);
    258c:	8d 45 b4             	lea    -0x4c(%ebp),%eax
    258f:	c7 44 24 10 0f 00 00 	movl   $0xf,0x10(%esp)
    2596:	00 
    2597:	c7 44 24 0c 0f 00 00 	movl   $0xf,0xc(%esp)
    259e:	00 
    259f:	c7 44 24 08 32 00 00 	movl   $0x32,0x8(%esp)
    25a6:	00 
    25a7:	c7 44 24 04 32 00 00 	movl   $0x32,0x4(%esp)
    25ae:	00 
    25af:	89 04 24             	mov    %eax,(%esp)
    25b2:	e8 e5 fa ff ff       	call   209c <initRect>
    25b7:	83 ec 04             	sub    $0x4,%esp
	Rect r4 = initRect(0,0,30,30);
    25ba:	8d 45 a4             	lea    -0x5c(%ebp),%eax
    25bd:	c7 44 24 10 1e 00 00 	movl   $0x1e,0x10(%esp)
    25c4:	00 
    25c5:	c7 44 24 0c 1e 00 00 	movl   $0x1e,0xc(%esp)
    25cc:	00 
    25cd:	c7 44 24 08 00 00 00 	movl   $0x0,0x8(%esp)
    25d4:	00 
    25d5:	c7 44 24 04 00 00 00 	movl   $0x0,0x4(%esp)
    25dc:	00 
    25dd:	89 04 24             	mov    %eax,(%esp)
    25e0:	e8 b7 fa ff ff       	call   209c <initRect>
    25e5:	83 ec 04             	sub    $0x4,%esp
	Point p1 = initPoint(23, 23);
    25e8:	8d 45 9c             	lea    -0x64(%ebp),%eax
    25eb:	c7 44 24 08 17 00 00 	movl   $0x17,0x8(%esp)
    25f2:	00 
    25f3:	c7 44 24 04 17 00 00 	movl   $0x17,0x4(%esp)
    25fa:	00 
    25fb:	89 04 24             	mov    %eax,(%esp)
    25fe:	e8 72 fa ff ff       	call   2075 <initPoint>
    2603:	83 ec 04             	sub    $0x4,%esp
	Point p2 = initPoint(70, 70);
    2606:	8d 45 94             	lea    -0x6c(%ebp),%eax
    2609:	c7 44 24 08 46 00 00 	movl   $0x46,0x8(%esp)
    2610:	00 
    2611:	c7 44 24 04 46 00 00 	movl   $0x46,0x4(%esp)
    2618:	00 
    2619:	89 04 24             	mov    %eax,(%esp)
    261c:	e8 54 fa ff ff       	call   2075 <initPoint>
    2621:	83 ec 04             	sub    $0x4,%esp
	createClickable(&cm, r1, MSG_LPRESS, &testHanler);
    2624:	c7 44 24 18 da 24 00 	movl   $0x24da,0x18(%esp)
    262b:	00 
    262c:	c7 44 24 14 02 00 00 	movl   $0x2,0x14(%esp)
    2633:	00 
    2634:	8b 45 d4             	mov    -0x2c(%ebp),%eax
    2637:	89 44 24 04          	mov    %eax,0x4(%esp)
    263b:	8b 45 d8             	mov    -0x28(%ebp),%eax
    263e:	89 44 24 08          	mov    %eax,0x8(%esp)
    2642:	8b 45 dc             	mov    -0x24(%ebp),%eax
    2645:	89 44 24 0c          	mov    %eax,0xc(%esp)
    2649:	8b 45 e0             	mov    -0x20(%ebp),%eax
    264c:	89 44 24 10          	mov    %eax,0x10(%esp)
    2650:	8d 45 e4             	lea    -0x1c(%ebp),%eax
    2653:	89 04 24             	mov    %eax,(%esp)
    2656:	e8 2d fb ff ff       	call   2188 <createClickable>
	printf(0, "left_click: %d\n", cm.left_click);
    265b:	8b 45 e4             	mov    -0x1c(%ebp),%eax
    265e:	89 44 24 08          	mov    %eax,0x8(%esp)
    2662:	c7 44 24 04 03 96 00 	movl   $0x9603,0x4(%esp)
    2669:	00 
    266a:	c7 04 24 00 00 00 00 	movl   $0x0,(%esp)
    2671:	e8 65 05 00 00       	call   2bdb <printf>
	createClickable(&cm, r2, MSG_LPRESS, &testHanler);
    2676:	c7 44 24 18 da 24 00 	movl   $0x24da,0x18(%esp)
    267d:	00 
    267e:	c7 44 24 14 02 00 00 	movl   $0x2,0x14(%esp)
    2685:	00 
    2686:	8b 45 c4             	mov    -0x3c(%ebp),%eax
    2689:	89 44 24 04          	mov    %eax,0x4(%esp)
    268d:	8b 45 c8             	mov    -0x38(%ebp),%eax
    2690:	89 44 24 08          	mov    %eax,0x8(%esp)
    2694:	8b 45 cc             	mov    -0x34(%ebp),%eax
    2697:	89 44 24 0c          	mov    %eax,0xc(%esp)
    269b:	8b 45 d0             	mov    -0x30(%ebp),%eax
    269e:	89 44 24 10          	mov    %eax,0x10(%esp)
    26a2:	8d 45 e4             	lea    -0x1c(%ebp),%eax
    26a5:	89 04 24             	mov    %eax,(%esp)
    26a8:	e8 db fa ff ff       	call   2188 <createClickable>
	printf(0, "left_click: %d\n", cm.left_click);
    26ad:	8b 45 e4             	mov    -0x1c(%ebp),%eax
    26b0:	89 44 24 08          	mov    %eax,0x8(%esp)
    26b4:	c7 44 24 04 03 96 00 	movl   $0x9603,0x4(%esp)
    26bb:	00 
    26bc:	c7 04 24 00 00 00 00 	movl   $0x0,(%esp)
    26c3:	e8 13 05 00 00       	call   2bdb <printf>
	createClickable(&cm, r3, MSG_LPRESS, &testHanler);
    26c8:	c7 44 24 18 da 24 00 	movl   $0x24da,0x18(%esp)
    26cf:	00 
    26d0:	c7 44 24 14 02 00 00 	movl   $0x2,0x14(%esp)
    26d7:	00 
    26d8:	8b 45 b4             	mov    -0x4c(%ebp),%eax
    26db:	89 44 24 04          	mov    %eax,0x4(%esp)
    26df:	8b 45 b8             	mov    -0x48(%ebp),%eax
    26e2:	89 44 24 08          	mov    %eax,0x8(%esp)
    26e6:	8b 45 bc             	mov    -0x44(%ebp),%eax
    26e9:	89 44 24 0c          	mov    %eax,0xc(%esp)
    26ed:	8b 45 c0             	mov    -0x40(%ebp),%eax
    26f0:	89 44 24 10          	mov    %eax,0x10(%esp)
    26f4:	8d 45 e4             	lea    -0x1c(%ebp),%eax
    26f7:	89 04 24             	mov    %eax,(%esp)
    26fa:	e8 89 fa ff ff       	call   2188 <createClickable>
	printf(0, "left_click: %d\n", cm.left_click);
    26ff:	8b 45 e4             	mov    -0x1c(%ebp),%eax
    2702:	89 44 24 08          	mov    %eax,0x8(%esp)
    2706:	c7 44 24 04 03 96 00 	movl   $0x9603,0x4(%esp)
    270d:	00 
    270e:	c7 04 24 00 00 00 00 	movl   $0x0,(%esp)
    2715:	e8 c1 04 00 00       	call   2bdb <printf>
	printClickableList(cm.left_click);
    271a:	8b 45 e4             	mov    -0x1c(%ebp),%eax
    271d:	89 04 24             	mov    %eax,(%esp)
    2720:	e8 63 fd ff ff       	call   2488 <printClickableList>
	executeHandler(cm.left_click, p1);
    2725:	8b 4d e4             	mov    -0x1c(%ebp),%ecx
    2728:	8b 45 9c             	mov    -0x64(%ebp),%eax
    272b:	8b 55 a0             	mov    -0x60(%ebp),%edx
    272e:	89 44 24 04          	mov    %eax,0x4(%esp)
    2732:	89 54 24 08          	mov    %edx,0x8(%esp)
    2736:	89 0c 24             	mov    %ecx,(%esp)
    2739:	e8 41 fc ff ff       	call   237f <executeHandler>
	executeHandler(cm.left_click, p2);
    273e:	8b 4d e4             	mov    -0x1c(%ebp),%ecx
    2741:	8b 45 94             	mov    -0x6c(%ebp),%eax
    2744:	8b 55 98             	mov    -0x68(%ebp),%edx
    2747:	89 44 24 04          	mov    %eax,0x4(%esp)
    274b:	89 54 24 08          	mov    %edx,0x8(%esp)
    274f:	89 0c 24             	mov    %ecx,(%esp)
    2752:	e8 28 fc ff ff       	call   237f <executeHandler>
	deleteClickable(&cm.left_click, r4);
    2757:	8b 45 a4             	mov    -0x5c(%ebp),%eax
    275a:	89 44 24 04          	mov    %eax,0x4(%esp)
    275e:	8b 45 a8             	mov    -0x58(%ebp),%eax
    2761:	89 44 24 08          	mov    %eax,0x8(%esp)
    2765:	8b 45 ac             	mov    -0x54(%ebp),%eax
    2768:	89 44 24 0c          	mov    %eax,0xc(%esp)
    276c:	8b 45 b0             	mov    -0x50(%ebp),%eax
    276f:	89 44 24 10          	mov    %eax,0x10(%esp)
    2773:	8d 45 e4             	lea    -0x1c(%ebp),%eax
    2776:	89 04 24             	mov    %eax,(%esp)
    2779:	e8 21 fb ff ff       	call   229f <deleteClickable>
	printClickableList(cm.left_click);
    277e:	8b 45 e4             	mov    -0x1c(%ebp),%eax
    2781:	89 04 24             	mov    %eax,(%esp)
    2784:	e8 ff fc ff ff       	call   2488 <printClickableList>
}
    2789:	c9                   	leave  
    278a:	c3                   	ret    

0000278b <stosb>:
               "cc");
}

static inline void
stosb(void *addr, int data, int cnt)
{
    278b:	55                   	push   %ebp
    278c:	89 e5                	mov    %esp,%ebp
    278e:	57                   	push   %edi
    278f:	53                   	push   %ebx
  asm volatile("cld; rep stosb" :
    2790:	8b 4d 08             	mov    0x8(%ebp),%ecx
    2793:	8b 55 10             	mov    0x10(%ebp),%edx
    2796:	8b 45 0c             	mov    0xc(%ebp),%eax
    2799:	89 cb                	mov    %ecx,%ebx
    279b:	89 df                	mov    %ebx,%edi
    279d:	89 d1                	mov    %edx,%ecx
    279f:	fc                   	cld    
    27a0:	f3 aa                	rep stos %al,%es:(%edi)
    27a2:	89 ca                	mov    %ecx,%edx
    27a4:	89 fb                	mov    %edi,%ebx
    27a6:	89 5d 08             	mov    %ebx,0x8(%ebp)
    27a9:	89 55 10             	mov    %edx,0x10(%ebp)
               "=D" (addr), "=c" (cnt) :
               "0" (addr), "1" (cnt), "a" (data) :
               "memory", "cc");
}
    27ac:	5b                   	pop    %ebx
    27ad:	5f                   	pop    %edi
    27ae:	5d                   	pop    %ebp
    27af:	c3                   	ret    

000027b0 <strcpy>:
#include "user.h"
#include "x86.h"

char*
strcpy(char *s, char *t)
{
    27b0:	55                   	push   %ebp
    27b1:	89 e5                	mov    %esp,%ebp
    27b3:	83 ec 10             	sub    $0x10,%esp
  char *os;

  os = s;
    27b6:	8b 45 08             	mov    0x8(%ebp),%eax
    27b9:	89 45 fc             	mov    %eax,-0x4(%ebp)
  while((*s++ = *t++) != 0)
    27bc:	90                   	nop
    27bd:	8b 45 08             	mov    0x8(%ebp),%eax
    27c0:	8d 50 01             	lea    0x1(%eax),%edx
    27c3:	89 55 08             	mov    %edx,0x8(%ebp)
    27c6:	8b 55 0c             	mov    0xc(%ebp),%edx
    27c9:	8d 4a 01             	lea    0x1(%edx),%ecx
    27cc:	89 4d 0c             	mov    %ecx,0xc(%ebp)
    27cf:	0f b6 12             	movzbl (%edx),%edx
    27d2:	88 10                	mov    %dl,(%eax)
    27d4:	0f b6 00             	movzbl (%eax),%eax
    27d7:	84 c0                	test   %al,%al
    27d9:	75 e2                	jne    27bd <strcpy+0xd>
    ;
  return os;
    27db:	8b 45 fc             	mov    -0x4(%ebp),%eax
}
    27de:	c9                   	leave  
    27df:	c3                   	ret    

000027e0 <strcmp>:

int
strcmp(const char *p, const char *q)
{
    27e0:	55                   	push   %ebp
    27e1:	89 e5                	mov    %esp,%ebp
  while(*p && *p == *q)
    27e3:	eb 08                	jmp    27ed <strcmp+0xd>
    p++, q++;
    27e5:	83 45 08 01          	addl   $0x1,0x8(%ebp)
    27e9:	83 45 0c 01          	addl   $0x1,0xc(%ebp)
}

int
strcmp(const char *p, const char *q)
{
  while(*p && *p == *q)
    27ed:	8b 45 08             	mov    0x8(%ebp),%eax
    27f0:	0f b6 00             	movzbl (%eax),%eax
    27f3:	84 c0                	test   %al,%al
    27f5:	74 10                	je     2807 <strcmp+0x27>
    27f7:	8b 45 08             	mov    0x8(%ebp),%eax
    27fa:	0f b6 10             	movzbl (%eax),%edx
    27fd:	8b 45 0c             	mov    0xc(%ebp),%eax
    2800:	0f b6 00             	movzbl (%eax),%eax
    2803:	38 c2                	cmp    %al,%dl
    2805:	74 de                	je     27e5 <strcmp+0x5>
    p++, q++;
  return (uchar)*p - (uchar)*q;
    2807:	8b 45 08             	mov    0x8(%ebp),%eax
    280a:	0f b6 00             	movzbl (%eax),%eax
    280d:	0f b6 d0             	movzbl %al,%edx
    2810:	8b 45 0c             	mov    0xc(%ebp),%eax
    2813:	0f b6 00             	movzbl (%eax),%eax
    2816:	0f b6 c0             	movzbl %al,%eax
    2819:	29 c2                	sub    %eax,%edx
    281b:	89 d0                	mov    %edx,%eax
}
    281d:	5d                   	pop    %ebp
    281e:	c3                   	ret    

0000281f <strlen>:

uint
strlen(char *s)
{
    281f:	55                   	push   %ebp
    2820:	89 e5                	mov    %esp,%ebp
    2822:	83 ec 10             	sub    $0x10,%esp
  int n;

  for(n = 0; s[n]; n++)
    2825:	c7 45 fc 00 00 00 00 	movl   $0x0,-0x4(%ebp)
    282c:	eb 04                	jmp    2832 <strlen+0x13>
    282e:	83 45 fc 01          	addl   $0x1,-0x4(%ebp)
    2832:	8b 55 fc             	mov    -0x4(%ebp),%edx
    2835:	8b 45 08             	mov    0x8(%ebp),%eax
    2838:	01 d0                	add    %edx,%eax
    283a:	0f b6 00             	movzbl (%eax),%eax
    283d:	84 c0                	test   %al,%al
    283f:	75 ed                	jne    282e <strlen+0xf>
    ;
  return n;
    2841:	8b 45 fc             	mov    -0x4(%ebp),%eax
}
    2844:	c9                   	leave  
    2845:	c3                   	ret    

00002846 <memset>:

void*
memset(void *dst, int c, uint n)
{
    2846:	55                   	push   %ebp
    2847:	89 e5                	mov    %esp,%ebp
    2849:	83 ec 0c             	sub    $0xc,%esp
  stosb(dst, c, n);
    284c:	8b 45 10             	mov    0x10(%ebp),%eax
    284f:	89 44 24 08          	mov    %eax,0x8(%esp)
    2853:	8b 45 0c             	mov    0xc(%ebp),%eax
    2856:	89 44 24 04          	mov    %eax,0x4(%esp)
    285a:	8b 45 08             	mov    0x8(%ebp),%eax
    285d:	89 04 24             	mov    %eax,(%esp)
    2860:	e8 26 ff ff ff       	call   278b <stosb>
  return dst;
    2865:	8b 45 08             	mov    0x8(%ebp),%eax
}
    2868:	c9                   	leave  
    2869:	c3                   	ret    

0000286a <strchr>:

char*
strchr(const char *s, char c)
{
    286a:	55                   	push   %ebp
    286b:	89 e5                	mov    %esp,%ebp
    286d:	83 ec 04             	sub    $0x4,%esp
    2870:	8b 45 0c             	mov    0xc(%ebp),%eax
    2873:	88 45 fc             	mov    %al,-0x4(%ebp)
  for(; *s; s++)
    2876:	eb 14                	jmp    288c <strchr+0x22>
    if(*s == c)
    2878:	8b 45 08             	mov    0x8(%ebp),%eax
    287b:	0f b6 00             	movzbl (%eax),%eax
    287e:	3a 45 fc             	cmp    -0x4(%ebp),%al
    2881:	75 05                	jne    2888 <strchr+0x1e>
      return (char*)s;
    2883:	8b 45 08             	mov    0x8(%ebp),%eax
    2886:	eb 13                	jmp    289b <strchr+0x31>
}

char*
strchr(const char *s, char c)
{
  for(; *s; s++)
    2888:	83 45 08 01          	addl   $0x1,0x8(%ebp)
    288c:	8b 45 08             	mov    0x8(%ebp),%eax
    288f:	0f b6 00             	movzbl (%eax),%eax
    2892:	84 c0                	test   %al,%al
    2894:	75 e2                	jne    2878 <strchr+0xe>
    if(*s == c)
      return (char*)s;
  return 0;
    2896:	b8 00 00 00 00       	mov    $0x0,%eax
}
    289b:	c9                   	leave  
    289c:	c3                   	ret    

0000289d <gets>:

char*
gets(char *buf, int max)
{
    289d:	55                   	push   %ebp
    289e:	89 e5                	mov    %esp,%ebp
    28a0:	83 ec 28             	sub    $0x28,%esp
  int i, cc;
  char c;

  for(i=0; i+1 < max; ){
    28a3:	c7 45 f4 00 00 00 00 	movl   $0x0,-0xc(%ebp)
    28aa:	eb 4c                	jmp    28f8 <gets+0x5b>
    cc = read(0, &c, 1);
    28ac:	c7 44 24 08 01 00 00 	movl   $0x1,0x8(%esp)
    28b3:	00 
    28b4:	8d 45 ef             	lea    -0x11(%ebp),%eax
    28b7:	89 44 24 04          	mov    %eax,0x4(%esp)
    28bb:	c7 04 24 00 00 00 00 	movl   $0x0,(%esp)
    28c2:	e8 44 01 00 00       	call   2a0b <read>
    28c7:	89 45 f0             	mov    %eax,-0x10(%ebp)
    if(cc < 1)
    28ca:	83 7d f0 00          	cmpl   $0x0,-0x10(%ebp)
    28ce:	7f 02                	jg     28d2 <gets+0x35>
      break;
    28d0:	eb 31                	jmp    2903 <gets+0x66>
    buf[i++] = c;
    28d2:	8b 45 f4             	mov    -0xc(%ebp),%eax
    28d5:	8d 50 01             	lea    0x1(%eax),%edx
    28d8:	89 55 f4             	mov    %edx,-0xc(%ebp)
    28db:	89 c2                	mov    %eax,%edx
    28dd:	8b 45 08             	mov    0x8(%ebp),%eax
    28e0:	01 c2                	add    %eax,%edx
    28e2:	0f b6 45 ef          	movzbl -0x11(%ebp),%eax
    28e6:	88 02                	mov    %al,(%edx)
    if(c == '\n' || c == '\r')
    28e8:	0f b6 45 ef          	movzbl -0x11(%ebp),%eax
    28ec:	3c 0a                	cmp    $0xa,%al
    28ee:	74 13                	je     2903 <gets+0x66>
    28f0:	0f b6 45 ef          	movzbl -0x11(%ebp),%eax
    28f4:	3c 0d                	cmp    $0xd,%al
    28f6:	74 0b                	je     2903 <gets+0x66>
gets(char *buf, int max)
{
  int i, cc;
  char c;

  for(i=0; i+1 < max; ){
    28f8:	8b 45 f4             	mov    -0xc(%ebp),%eax
    28fb:	83 c0 01             	add    $0x1,%eax
    28fe:	3b 45 0c             	cmp    0xc(%ebp),%eax
    2901:	7c a9                	jl     28ac <gets+0xf>
      break;
    buf[i++] = c;
    if(c == '\n' || c == '\r')
      break;
  }
  buf[i] = '\0';
    2903:	8b 55 f4             	mov    -0xc(%ebp),%edx
    2906:	8b 45 08             	mov    0x8(%ebp),%eax
    2909:	01 d0                	add    %edx,%eax
    290b:	c6 00 00             	movb   $0x0,(%eax)
  return buf;
    290e:	8b 45 08             	mov    0x8(%ebp),%eax
}
    2911:	c9                   	leave  
    2912:	c3                   	ret    

00002913 <stat>:

int
stat(char *n, struct stat *st)
{
    2913:	55                   	push   %ebp
    2914:	89 e5                	mov    %esp,%ebp
    2916:	83 ec 28             	sub    $0x28,%esp
  int fd;
  int r;

  fd = open(n, O_RDONLY);
    2919:	c7 44 24 04 00 00 00 	movl   $0x0,0x4(%esp)
    2920:	00 
    2921:	8b 45 08             	mov    0x8(%ebp),%eax
    2924:	89 04 24             	mov    %eax,(%esp)
    2927:	e8 07 01 00 00       	call   2a33 <open>
    292c:	89 45 f4             	mov    %eax,-0xc(%ebp)
  if(fd < 0)
    292f:	83 7d f4 00          	cmpl   $0x0,-0xc(%ebp)
    2933:	79 07                	jns    293c <stat+0x29>
    return -1;
    2935:	b8 ff ff ff ff       	mov    $0xffffffff,%eax
    293a:	eb 23                	jmp    295f <stat+0x4c>
  r = fstat(fd, st);
    293c:	8b 45 0c             	mov    0xc(%ebp),%eax
    293f:	89 44 24 04          	mov    %eax,0x4(%esp)
    2943:	8b 45 f4             	mov    -0xc(%ebp),%eax
    2946:	89 04 24             	mov    %eax,(%esp)
    2949:	e8 fd 00 00 00       	call   2a4b <fstat>
    294e:	89 45 f0             	mov    %eax,-0x10(%ebp)
  close(fd);
    2951:	8b 45 f4             	mov    -0xc(%ebp),%eax
    2954:	89 04 24             	mov    %eax,(%esp)
    2957:	e8 bf 00 00 00       	call   2a1b <close>
  return r;
    295c:	8b 45 f0             	mov    -0x10(%ebp),%eax
}
    295f:	c9                   	leave  
    2960:	c3                   	ret    

00002961 <atoi>:

int
atoi(const char *s)
{
    2961:	55                   	push   %ebp
    2962:	89 e5                	mov    %esp,%ebp
    2964:	83 ec 10             	sub    $0x10,%esp
  int n;

  n = 0;
    2967:	c7 45 fc 00 00 00 00 	movl   $0x0,-0x4(%ebp)
  while('0' <= *s && *s <= '9')
    296e:	eb 25                	jmp    2995 <atoi+0x34>
    n = n*10 + *s++ - '0';
    2970:	8b 55 fc             	mov    -0x4(%ebp),%edx
    2973:	89 d0                	mov    %edx,%eax
    2975:	c1 e0 02             	shl    $0x2,%eax
    2978:	01 d0                	add    %edx,%eax
    297a:	01 c0                	add    %eax,%eax
    297c:	89 c1                	mov    %eax,%ecx
    297e:	8b 45 08             	mov    0x8(%ebp),%eax
    2981:	8d 50 01             	lea    0x1(%eax),%edx
    2984:	89 55 08             	mov    %edx,0x8(%ebp)
    2987:	0f b6 00             	movzbl (%eax),%eax
    298a:	0f be c0             	movsbl %al,%eax
    298d:	01 c8                	add    %ecx,%eax
    298f:	83 e8 30             	sub    $0x30,%eax
    2992:	89 45 fc             	mov    %eax,-0x4(%ebp)
atoi(const char *s)
{
  int n;

  n = 0;
  while('0' <= *s && *s <= '9')
    2995:	8b 45 08             	mov    0x8(%ebp),%eax
    2998:	0f b6 00             	movzbl (%eax),%eax
    299b:	3c 2f                	cmp    $0x2f,%al
    299d:	7e 0a                	jle    29a9 <atoi+0x48>
    299f:	8b 45 08             	mov    0x8(%ebp),%eax
    29a2:	0f b6 00             	movzbl (%eax),%eax
    29a5:	3c 39                	cmp    $0x39,%al
    29a7:	7e c7                	jle    2970 <atoi+0xf>
    n = n*10 + *s++ - '0';
  return n;
    29a9:	8b 45 fc             	mov    -0x4(%ebp),%eax
}
    29ac:	c9                   	leave  
    29ad:	c3                   	ret    

000029ae <memmove>:

void*
memmove(void *vdst, void *vsrc, int n)
{
    29ae:	55                   	push   %ebp
    29af:	89 e5                	mov    %esp,%ebp
    29b1:	83 ec 10             	sub    $0x10,%esp
  char *dst, *src;
  
  dst = vdst;
    29b4:	8b 45 08             	mov    0x8(%ebp),%eax
    29b7:	89 45 fc             	mov    %eax,-0x4(%ebp)
  src = vsrc;
    29ba:	8b 45 0c             	mov    0xc(%ebp),%eax
    29bd:	89 45 f8             	mov    %eax,-0x8(%ebp)
  while(n-- > 0)
    29c0:	eb 17                	jmp    29d9 <memmove+0x2b>
    *dst++ = *src++;
    29c2:	8b 45 fc             	mov    -0x4(%ebp),%eax
    29c5:	8d 50 01             	lea    0x1(%eax),%edx
    29c8:	89 55 fc             	mov    %edx,-0x4(%ebp)
    29cb:	8b 55 f8             	mov    -0x8(%ebp),%edx
    29ce:	8d 4a 01             	lea    0x1(%edx),%ecx
    29d1:	89 4d f8             	mov    %ecx,-0x8(%ebp)
    29d4:	0f b6 12             	movzbl (%edx),%edx
    29d7:	88 10                	mov    %dl,(%eax)
{
  char *dst, *src;
  
  dst = vdst;
  src = vsrc;
  while(n-- > 0)
    29d9:	8b 45 10             	mov    0x10(%ebp),%eax
    29dc:	8d 50 ff             	lea    -0x1(%eax),%edx
    29df:	89 55 10             	mov    %edx,0x10(%ebp)
    29e2:	85 c0                	test   %eax,%eax
    29e4:	7f dc                	jg     29c2 <memmove+0x14>
    *dst++ = *src++;
  return vdst;
    29e6:	8b 45 08             	mov    0x8(%ebp),%eax
}
    29e9:	c9                   	leave  
    29ea:	c3                   	ret    

000029eb <fork>:
  name: \
    movl $SYS_ ## name, %eax; \
    int $T_SYSCALL; \
    ret

SYSCALL(fork)
    29eb:	b8 01 00 00 00       	mov    $0x1,%eax
    29f0:	cd 40                	int    $0x40
    29f2:	c3                   	ret    

000029f3 <exit>:
SYSCALL(exit)
    29f3:	b8 02 00 00 00       	mov    $0x2,%eax
    29f8:	cd 40                	int    $0x40
    29fa:	c3                   	ret    

000029fb <wait>:
SYSCALL(wait)
    29fb:	b8 03 00 00 00       	mov    $0x3,%eax
    2a00:	cd 40                	int    $0x40
    2a02:	c3                   	ret    

00002a03 <pipe>:
SYSCALL(pipe)
    2a03:	b8 04 00 00 00       	mov    $0x4,%eax
    2a08:	cd 40                	int    $0x40
    2a0a:	c3                   	ret    

00002a0b <read>:
SYSCALL(read)
    2a0b:	b8 05 00 00 00       	mov    $0x5,%eax
    2a10:	cd 40                	int    $0x40
    2a12:	c3                   	ret    

00002a13 <write>:
SYSCALL(write)
    2a13:	b8 10 00 00 00       	mov    $0x10,%eax
    2a18:	cd 40                	int    $0x40
    2a1a:	c3                   	ret    

00002a1b <close>:
SYSCALL(close)
    2a1b:	b8 15 00 00 00       	mov    $0x15,%eax
    2a20:	cd 40                	int    $0x40
    2a22:	c3                   	ret    

00002a23 <kill>:
SYSCALL(kill)
    2a23:	b8 06 00 00 00       	mov    $0x6,%eax
    2a28:	cd 40                	int    $0x40
    2a2a:	c3                   	ret    

00002a2b <exec>:
SYSCALL(exec)
    2a2b:	b8 07 00 00 00       	mov    $0x7,%eax
    2a30:	cd 40                	int    $0x40
    2a32:	c3                   	ret    

00002a33 <open>:
SYSCALL(open)
    2a33:	b8 0f 00 00 00       	mov    $0xf,%eax
    2a38:	cd 40                	int    $0x40
    2a3a:	c3                   	ret    

00002a3b <mknod>:
SYSCALL(mknod)
    2a3b:	b8 11 00 00 00       	mov    $0x11,%eax
    2a40:	cd 40                	int    $0x40
    2a42:	c3                   	ret    

00002a43 <unlink>:
SYSCALL(unlink)
    2a43:	b8 12 00 00 00       	mov    $0x12,%eax
    2a48:	cd 40                	int    $0x40
    2a4a:	c3                   	ret    

00002a4b <fstat>:
SYSCALL(fstat)
    2a4b:	b8 08 00 00 00       	mov    $0x8,%eax
    2a50:	cd 40                	int    $0x40
    2a52:	c3                   	ret    

00002a53 <link>:
SYSCALL(link)
    2a53:	b8 13 00 00 00       	mov    $0x13,%eax
    2a58:	cd 40                	int    $0x40
    2a5a:	c3                   	ret    

00002a5b <mkdir>:
SYSCALL(mkdir)
    2a5b:	b8 14 00 00 00       	mov    $0x14,%eax
    2a60:	cd 40                	int    $0x40
    2a62:	c3                   	ret    

00002a63 <chdir>:
SYSCALL(chdir)
    2a63:	b8 09 00 00 00       	mov    $0x9,%eax
    2a68:	cd 40                	int    $0x40
    2a6a:	c3                   	ret    

00002a6b <dup>:
SYSCALL(dup)
    2a6b:	b8 0a 00 00 00       	mov    $0xa,%eax
    2a70:	cd 40                	int    $0x40
    2a72:	c3                   	ret    

00002a73 <getpid>:
SYSCALL(getpid)
    2a73:	b8 0b 00 00 00       	mov    $0xb,%eax
    2a78:	cd 40                	int    $0x40
    2a7a:	c3                   	ret    

00002a7b <sbrk>:
SYSCALL(sbrk)
    2a7b:	b8 0c 00 00 00       	mov    $0xc,%eax
    2a80:	cd 40                	int    $0x40
    2a82:	c3                   	ret    

00002a83 <sleep>:
SYSCALL(sleep)
    2a83:	b8 0d 00 00 00       	mov    $0xd,%eax
    2a88:	cd 40                	int    $0x40
    2a8a:	c3                   	ret    

00002a8b <uptime>:
SYSCALL(uptime)
    2a8b:	b8 0e 00 00 00       	mov    $0xe,%eax
    2a90:	cd 40                	int    $0x40
    2a92:	c3                   	ret    

00002a93 <getMsg>:
SYSCALL(getMsg)
    2a93:	b8 16 00 00 00       	mov    $0x16,%eax
    2a98:	cd 40                	int    $0x40
    2a9a:	c3                   	ret    

00002a9b <createWindow>:
SYSCALL(createWindow)
    2a9b:	b8 17 00 00 00       	mov    $0x17,%eax
    2aa0:	cd 40                	int    $0x40
    2aa2:	c3                   	ret    

00002aa3 <destroyWindow>:
SYSCALL(destroyWindow)
    2aa3:	b8 18 00 00 00       	mov    $0x18,%eax
    2aa8:	cd 40                	int    $0x40
    2aaa:	c3                   	ret    

00002aab <updateWindow>:
SYSCALL(updateWindow)
    2aab:	b8 19 00 00 00       	mov    $0x19,%eax
    2ab0:	cd 40                	int    $0x40
    2ab2:	c3                   	ret    

00002ab3 <updatePartialWindow>:
SYSCALL(updatePartialWindow)
    2ab3:	b8 1a 00 00 00       	mov    $0x1a,%eax
    2ab8:	cd 40                	int    $0x40
    2aba:	c3                   	ret    

00002abb <kwrite>:
SYSCALL(kwrite)
    2abb:	b8 1c 00 00 00       	mov    $0x1c,%eax
    2ac0:	cd 40                	int    $0x40
    2ac2:	c3                   	ret    

00002ac3 <setSampleRate>:
SYSCALL(setSampleRate)
    2ac3:	b8 1b 00 00 00       	mov    $0x1b,%eax
    2ac8:	cd 40                	int    $0x40
    2aca:	c3                   	ret    

00002acb <pause>:
SYSCALL(pause)
    2acb:	b8 1d 00 00 00       	mov    $0x1d,%eax
    2ad0:	cd 40                	int    $0x40
    2ad2:	c3                   	ret    

00002ad3 <wavdecode>:
SYSCALL(wavdecode)
    2ad3:	b8 1e 00 00 00       	mov    $0x1e,%eax
    2ad8:	cd 40                	int    $0x40
    2ada:	c3                   	ret    

00002adb <beginDecode>:
SYSCALL(beginDecode)
    2adb:	b8 1f 00 00 00       	mov    $0x1f,%eax
    2ae0:	cd 40                	int    $0x40
    2ae2:	c3                   	ret    

00002ae3 <waitForDecode>:
SYSCALL(waitForDecode)
    2ae3:	b8 20 00 00 00       	mov    $0x20,%eax
    2ae8:	cd 40                	int    $0x40
    2aea:	c3                   	ret    

00002aeb <endDecode>:
SYSCALL(endDecode)
    2aeb:	b8 21 00 00 00       	mov    $0x21,%eax
    2af0:	cd 40                	int    $0x40
    2af2:	c3                   	ret    

00002af3 <getCoreBuf>:
    2af3:	b8 22 00 00 00       	mov    $0x22,%eax
    2af8:	cd 40                	int    $0x40
    2afa:	c3                   	ret    

00002afb <putc>:
#include "stat.h"
#include "user.h"

static void
putc(int fd, char c)
{
    2afb:	55                   	push   %ebp
    2afc:	89 e5                	mov    %esp,%ebp
    2afe:	83 ec 18             	sub    $0x18,%esp
    2b01:	8b 45 0c             	mov    0xc(%ebp),%eax
    2b04:	88 45 f4             	mov    %al,-0xc(%ebp)
  write(fd, &c, 1);
    2b07:	c7 44 24 08 01 00 00 	movl   $0x1,0x8(%esp)
    2b0e:	00 
    2b0f:	8d 45 f4             	lea    -0xc(%ebp),%eax
    2b12:	89 44 24 04          	mov    %eax,0x4(%esp)
    2b16:	8b 45 08             	mov    0x8(%ebp),%eax
    2b19:	89 04 24             	mov    %eax,(%esp)
    2b1c:	e8 f2 fe ff ff       	call   2a13 <write>
}
    2b21:	c9                   	leave  
    2b22:	c3                   	ret    

00002b23 <printint>:

static void
printint(int fd, int xx, int base, int sgn)
{
    2b23:	55                   	push   %ebp
    2b24:	89 e5                	mov    %esp,%ebp
    2b26:	56                   	push   %esi
    2b27:	53                   	push   %ebx
    2b28:	83 ec 30             	sub    $0x30,%esp
  static char digits[] = "0123456789ABCDEF";
  char buf[16];
  int i, neg;
  uint x;

  neg = 0;
    2b2b:	c7 45 f0 00 00 00 00 	movl   $0x0,-0x10(%ebp)
  if(sgn && xx < 0){
    2b32:	83 7d 14 00          	cmpl   $0x0,0x14(%ebp)
    2b36:	74 17                	je     2b4f <printint+0x2c>
    2b38:	83 7d 0c 00          	cmpl   $0x0,0xc(%ebp)
    2b3c:	79 11                	jns    2b4f <printint+0x2c>
    neg = 1;
    2b3e:	c7 45 f0 01 00 00 00 	movl   $0x1,-0x10(%ebp)
    x = -xx;
    2b45:	8b 45 0c             	mov    0xc(%ebp),%eax
    2b48:	f7 d8                	neg    %eax
    2b4a:	89 45 ec             	mov    %eax,-0x14(%ebp)
    2b4d:	eb 06                	jmp    2b55 <printint+0x32>
  } else {
    x = xx;
    2b4f:	8b 45 0c             	mov    0xc(%ebp),%eax
    2b52:	89 45 ec             	mov    %eax,-0x14(%ebp)
  }

  i = 0;
    2b55:	c7 45 f4 00 00 00 00 	movl   $0x0,-0xc(%ebp)
  do{
    buf[i++] = digits[x % base];
    2b5c:	8b 4d f4             	mov    -0xc(%ebp),%ecx
    2b5f:	8d 41 01             	lea    0x1(%ecx),%eax
    2b62:	89 45 f4             	mov    %eax,-0xc(%ebp)
    2b65:	8b 5d 10             	mov    0x10(%ebp),%ebx
    2b68:	8b 45 ec             	mov    -0x14(%ebp),%eax
    2b6b:	ba 00 00 00 00       	mov    $0x0,%edx
    2b70:	f7 f3                	div    %ebx
    2b72:	89 d0                	mov    %edx,%eax
    2b74:	0f b6 80 9c cc 00 00 	movzbl 0xcc9c(%eax),%eax
    2b7b:	88 44 0d dc          	mov    %al,-0x24(%ebp,%ecx,1)
  }while((x /= base) != 0);
    2b7f:	8b 75 10             	mov    0x10(%ebp),%esi
    2b82:	8b 45 ec             	mov    -0x14(%ebp),%eax
    2b85:	ba 00 00 00 00       	mov    $0x0,%edx
    2b8a:	f7 f6                	div    %esi
    2b8c:	89 45 ec             	mov    %eax,-0x14(%ebp)
    2b8f:	83 7d ec 00          	cmpl   $0x0,-0x14(%ebp)
    2b93:	75 c7                	jne    2b5c <printint+0x39>
  if(neg)
    2b95:	83 7d f0 00          	cmpl   $0x0,-0x10(%ebp)
    2b99:	74 10                	je     2bab <printint+0x88>
    buf[i++] = '-';
    2b9b:	8b 45 f4             	mov    -0xc(%ebp),%eax
    2b9e:	8d 50 01             	lea    0x1(%eax),%edx
    2ba1:	89 55 f4             	mov    %edx,-0xc(%ebp)
    2ba4:	c6 44 05 dc 2d       	movb   $0x2d,-0x24(%ebp,%eax,1)

  while(--i >= 0)
    2ba9:	eb 1f                	jmp    2bca <printint+0xa7>
    2bab:	eb 1d                	jmp    2bca <printint+0xa7>
    putc(fd, buf[i]);
    2bad:	8d 55 dc             	lea    -0x24(%ebp),%edx
    2bb0:	8b 45 f4             	mov    -0xc(%ebp),%eax
    2bb3:	01 d0                	add    %edx,%eax
    2bb5:	0f b6 00             	movzbl (%eax),%eax
    2bb8:	0f be c0             	movsbl %al,%eax
    2bbb:	89 44 24 04          	mov    %eax,0x4(%esp)
    2bbf:	8b 45 08             	mov    0x8(%ebp),%eax
    2bc2:	89 04 24             	mov    %eax,(%esp)
    2bc5:	e8 31 ff ff ff       	call   2afb <putc>
    buf[i++] = digits[x % base];
  }while((x /= base) != 0);
  if(neg)
    buf[i++] = '-';

  while(--i >= 0)
    2bca:	83 6d f4 01          	subl   $0x1,-0xc(%ebp)
    2bce:	83 7d f4 00          	cmpl   $0x0,-0xc(%ebp)
    2bd2:	79 d9                	jns    2bad <printint+0x8a>
    putc(fd, buf[i]);
}
    2bd4:	83 c4 30             	add    $0x30,%esp
    2bd7:	5b                   	pop    %ebx
    2bd8:	5e                   	pop    %esi
    2bd9:	5d                   	pop    %ebp
    2bda:	c3                   	ret    

00002bdb <printf>:

// Print to the given fd. Only understands %d, %x, %p, %s.
void
printf(int fd, char *fmt, ...)
{
    2bdb:	55                   	push   %ebp
    2bdc:	89 e5                	mov    %esp,%ebp
    2bde:	83 ec 38             	sub    $0x38,%esp
  char *s;
  int c, i, state;
  uint *ap;

  state = 0;
    2be1:	c7 45 ec 00 00 00 00 	movl   $0x0,-0x14(%ebp)
  ap = (uint*)(void*)&fmt + 1;
    2be8:	8d 45 0c             	lea    0xc(%ebp),%eax
    2beb:	83 c0 04             	add    $0x4,%eax
    2bee:	89 45 e8             	mov    %eax,-0x18(%ebp)
  for(i = 0; fmt[i]; i++){
    2bf1:	c7 45 f0 00 00 00 00 	movl   $0x0,-0x10(%ebp)
    2bf8:	e9 7c 01 00 00       	jmp    2d79 <printf+0x19e>
    c = fmt[i] & 0xff;
    2bfd:	8b 55 0c             	mov    0xc(%ebp),%edx
    2c00:	8b 45 f0             	mov    -0x10(%ebp),%eax
    2c03:	01 d0                	add    %edx,%eax
    2c05:	0f b6 00             	movzbl (%eax),%eax
    2c08:	0f be c0             	movsbl %al,%eax
    2c0b:	25 ff 00 00 00       	and    $0xff,%eax
    2c10:	89 45 e4             	mov    %eax,-0x1c(%ebp)
    if(state == 0){
    2c13:	83 7d ec 00          	cmpl   $0x0,-0x14(%ebp)
    2c17:	75 2c                	jne    2c45 <printf+0x6a>
      if(c == '%'){
    2c19:	83 7d e4 25          	cmpl   $0x25,-0x1c(%ebp)
    2c1d:	75 0c                	jne    2c2b <printf+0x50>
        state = '%';
    2c1f:	c7 45 ec 25 00 00 00 	movl   $0x25,-0x14(%ebp)
    2c26:	e9 4a 01 00 00       	jmp    2d75 <printf+0x19a>
      } else {
        putc(fd, c);
    2c2b:	8b 45 e4             	mov    -0x1c(%ebp),%eax
    2c2e:	0f be c0             	movsbl %al,%eax
    2c31:	89 44 24 04          	mov    %eax,0x4(%esp)
    2c35:	8b 45 08             	mov    0x8(%ebp),%eax
    2c38:	89 04 24             	mov    %eax,(%esp)
    2c3b:	e8 bb fe ff ff       	call   2afb <putc>
    2c40:	e9 30 01 00 00       	jmp    2d75 <printf+0x19a>
      }
    } else if(state == '%'){
    2c45:	83 7d ec 25          	cmpl   $0x25,-0x14(%ebp)
    2c49:	0f 85 26 01 00 00    	jne    2d75 <printf+0x19a>
      if(c == 'd'){
    2c4f:	83 7d e4 64          	cmpl   $0x64,-0x1c(%ebp)
    2c53:	75 2d                	jne    2c82 <printf+0xa7>
        printint(fd, *ap, 10, 1);
    2c55:	8b 45 e8             	mov    -0x18(%ebp),%eax
    2c58:	8b 00                	mov    (%eax),%eax
    2c5a:	c7 44 24 0c 01 00 00 	movl   $0x1,0xc(%esp)
    2c61:	00 
    2c62:	c7 44 24 08 0a 00 00 	movl   $0xa,0x8(%esp)
    2c69:	00 
    2c6a:	89 44 24 04          	mov    %eax,0x4(%esp)
    2c6e:	8b 45 08             	mov    0x8(%ebp),%eax
    2c71:	89 04 24             	mov    %eax,(%esp)
    2c74:	e8 aa fe ff ff       	call   2b23 <printint>
        ap++;
    2c79:	83 45 e8 04          	addl   $0x4,-0x18(%ebp)
    2c7d:	e9 ec 00 00 00       	jmp    2d6e <printf+0x193>
      } else if(c == 'x' || c == 'p'){
    2c82:	83 7d e4 78          	cmpl   $0x78,-0x1c(%ebp)
    2c86:	74 06                	je     2c8e <printf+0xb3>
    2c88:	83 7d e4 70          	cmpl   $0x70,-0x1c(%ebp)
    2c8c:	75 2d                	jne    2cbb <printf+0xe0>
        printint(fd, *ap, 16, 0);
    2c8e:	8b 45 e8             	mov    -0x18(%ebp),%eax
    2c91:	8b 00                	mov    (%eax),%eax
    2c93:	c7 44 24 0c 00 00 00 	movl   $0x0,0xc(%esp)
    2c9a:	00 
    2c9b:	c7 44 24 08 10 00 00 	movl   $0x10,0x8(%esp)
    2ca2:	00 
    2ca3:	89 44 24 04          	mov    %eax,0x4(%esp)
    2ca7:	8b 45 08             	mov    0x8(%ebp),%eax
    2caa:	89 04 24             	mov    %eax,(%esp)
    2cad:	e8 71 fe ff ff       	call   2b23 <printint>
        ap++;
    2cb2:	83 45 e8 04          	addl   $0x4,-0x18(%ebp)
    2cb6:	e9 b3 00 00 00       	jmp    2d6e <printf+0x193>
      } else if(c == 's'){
    2cbb:	83 7d e4 73          	cmpl   $0x73,-0x1c(%ebp)
    2cbf:	75 45                	jne    2d06 <printf+0x12b>
        s = (char*)*ap;
    2cc1:	8b 45 e8             	mov    -0x18(%ebp),%eax
    2cc4:	8b 00                	mov    (%eax),%eax
    2cc6:	89 45 f4             	mov    %eax,-0xc(%ebp)
        ap++;
    2cc9:	83 45 e8 04          	addl   $0x4,-0x18(%ebp)
        if(s == 0)
    2ccd:	83 7d f4 00          	cmpl   $0x0,-0xc(%ebp)
    2cd1:	75 09                	jne    2cdc <printf+0x101>
          s = "(null)";
    2cd3:	c7 45 f4 13 96 00 00 	movl   $0x9613,-0xc(%ebp)
        while(*s != 0){
    2cda:	eb 1e                	jmp    2cfa <printf+0x11f>
    2cdc:	eb 1c                	jmp    2cfa <printf+0x11f>
          putc(fd, *s);
    2cde:	8b 45 f4             	mov    -0xc(%ebp),%eax
    2ce1:	0f b6 00             	movzbl (%eax),%eax
    2ce4:	0f be c0             	movsbl %al,%eax
    2ce7:	89 44 24 04          	mov    %eax,0x4(%esp)
    2ceb:	8b 45 08             	mov    0x8(%ebp),%eax
    2cee:	89 04 24             	mov    %eax,(%esp)
    2cf1:	e8 05 fe ff ff       	call   2afb <putc>
          s++;
    2cf6:	83 45 f4 01          	addl   $0x1,-0xc(%ebp)
      } else if(c == 's'){
        s = (char*)*ap;
        ap++;
        if(s == 0)
          s = "(null)";
        while(*s != 0){
    2cfa:	8b 45 f4             	mov    -0xc(%ebp),%eax
    2cfd:	0f b6 00             	movzbl (%eax),%eax
    2d00:	84 c0                	test   %al,%al
    2d02:	75 da                	jne    2cde <printf+0x103>
    2d04:	eb 68                	jmp    2d6e <printf+0x193>
          putc(fd, *s);
          s++;
        }
      } else if(c == 'c'){
    2d06:	83 7d e4 63          	cmpl   $0x63,-0x1c(%ebp)
    2d0a:	75 1d                	jne    2d29 <printf+0x14e>
        putc(fd, *ap);
    2d0c:	8b 45 e8             	mov    -0x18(%ebp),%eax
    2d0f:	8b 00                	mov    (%eax),%eax
    2d11:	0f be c0             	movsbl %al,%eax
    2d14:	89 44 24 04          	mov    %eax,0x4(%esp)
    2d18:	8b 45 08             	mov    0x8(%ebp),%eax
    2d1b:	89 04 24             	mov    %eax,(%esp)
    2d1e:	e8 d8 fd ff ff       	call   2afb <putc>
        ap++;
    2d23:	83 45 e8 04          	addl   $0x4,-0x18(%ebp)
    2d27:	eb 45                	jmp    2d6e <printf+0x193>
      } else if(c == '%'){
    2d29:	83 7d e4 25          	cmpl   $0x25,-0x1c(%ebp)
    2d2d:	75 17                	jne    2d46 <printf+0x16b>
        putc(fd, c);
    2d2f:	8b 45 e4             	mov    -0x1c(%ebp),%eax
    2d32:	0f be c0             	movsbl %al,%eax
    2d35:	89 44 24 04          	mov    %eax,0x4(%esp)
    2d39:	8b 45 08             	mov    0x8(%ebp),%eax
    2d3c:	89 04 24             	mov    %eax,(%esp)
    2d3f:	e8 b7 fd ff ff       	call   2afb <putc>
    2d44:	eb 28                	jmp    2d6e <printf+0x193>
      } else {
        // Unknown % sequence.  Print it to draw attention.
        putc(fd, '%');
    2d46:	c7 44 24 04 25 00 00 	movl   $0x25,0x4(%esp)
    2d4d:	00 
    2d4e:	8b 45 08             	mov    0x8(%ebp),%eax
    2d51:	89 04 24             	mov    %eax,(%esp)
    2d54:	e8 a2 fd ff ff       	call   2afb <putc>
        putc(fd, c);
    2d59:	8b 45 e4             	mov    -0x1c(%ebp),%eax
    2d5c:	0f be c0             	movsbl %al,%eax
    2d5f:	89 44 24 04          	mov    %eax,0x4(%esp)
    2d63:	8b 45 08             	mov    0x8(%ebp),%eax
    2d66:	89 04 24             	mov    %eax,(%esp)
    2d69:	e8 8d fd ff ff       	call   2afb <putc>
      }
      state = 0;
    2d6e:	c7 45 ec 00 00 00 00 	movl   $0x0,-0x14(%ebp)
  int c, i, state;
  uint *ap;

  state = 0;
  ap = (uint*)(void*)&fmt + 1;
  for(i = 0; fmt[i]; i++){
    2d75:	83 45 f0 01          	addl   $0x1,-0x10(%ebp)
    2d79:	8b 55 0c             	mov    0xc(%ebp),%edx
    2d7c:	8b 45 f0             	mov    -0x10(%ebp),%eax
    2d7f:	01 d0                	add    %edx,%eax
    2d81:	0f b6 00             	movzbl (%eax),%eax
    2d84:	84 c0                	test   %al,%al
    2d86:	0f 85 71 fe ff ff    	jne    2bfd <printf+0x22>
        putc(fd, c);
      }
      state = 0;
    }
  }
}
    2d8c:	c9                   	leave  
    2d8d:	c3                   	ret    

00002d8e <free>:
static Header base;
static Header *freep;

void
free(void *ap)
{
    2d8e:	55                   	push   %ebp
    2d8f:	89 e5                	mov    %esp,%ebp
    2d91:	83 ec 10             	sub    $0x10,%esp
  Header *bp, *p;

  bp = (Header*)ap - 1;
    2d94:	8b 45 08             	mov    0x8(%ebp),%eax
    2d97:	83 e8 08             	sub    $0x8,%eax
    2d9a:	89 45 f8             	mov    %eax,-0x8(%ebp)
  for(p = freep; !(bp > p && bp < p->s.ptr); p = p->s.ptr)
    2d9d:	a1 a8 d1 00 00       	mov    0xd1a8,%eax
    2da2:	89 45 fc             	mov    %eax,-0x4(%ebp)
    2da5:	eb 24                	jmp    2dcb <free+0x3d>
    if(p >= p->s.ptr && (bp > p || bp < p->s.ptr))
    2da7:	8b 45 fc             	mov    -0x4(%ebp),%eax
    2daa:	8b 00                	mov    (%eax),%eax
    2dac:	3b 45 fc             	cmp    -0x4(%ebp),%eax
    2daf:	77 12                	ja     2dc3 <free+0x35>
    2db1:	8b 45 f8             	mov    -0x8(%ebp),%eax
    2db4:	3b 45 fc             	cmp    -0x4(%ebp),%eax
    2db7:	77 24                	ja     2ddd <free+0x4f>
    2db9:	8b 45 fc             	mov    -0x4(%ebp),%eax
    2dbc:	8b 00                	mov    (%eax),%eax
    2dbe:	3b 45 f8             	cmp    -0x8(%ebp),%eax
    2dc1:	77 1a                	ja     2ddd <free+0x4f>
free(void *ap)
{
  Header *bp, *p;

  bp = (Header*)ap - 1;
  for(p = freep; !(bp > p && bp < p->s.ptr); p = p->s.ptr)
    2dc3:	8b 45 fc             	mov    -0x4(%ebp),%eax
    2dc6:	8b 00                	mov    (%eax),%eax
    2dc8:	89 45 fc             	mov    %eax,-0x4(%ebp)
    2dcb:	8b 45 f8             	mov    -0x8(%ebp),%eax
    2dce:	3b 45 fc             	cmp    -0x4(%ebp),%eax
    2dd1:	76 d4                	jbe    2da7 <free+0x19>
    2dd3:	8b 45 fc             	mov    -0x4(%ebp),%eax
    2dd6:	8b 00                	mov    (%eax),%eax
    2dd8:	3b 45 f8             	cmp    -0x8(%ebp),%eax
    2ddb:	76 ca                	jbe    2da7 <free+0x19>
    if(p >= p->s.ptr && (bp > p || bp < p->s.ptr))
      break;
  if(bp + bp->s.size == p->s.ptr){
    2ddd:	8b 45 f8             	mov    -0x8(%ebp),%eax
    2de0:	8b 40 04             	mov    0x4(%eax),%eax
    2de3:	8d 14 c5 00 00 00 00 	lea    0x0(,%eax,8),%edx
    2dea:	8b 45 f8             	mov    -0x8(%ebp),%eax
    2ded:	01 c2                	add    %eax,%edx
    2def:	8b 45 fc             	mov    -0x4(%ebp),%eax
    2df2:	8b 00                	mov    (%eax),%eax
    2df4:	39 c2                	cmp    %eax,%edx
    2df6:	75 24                	jne    2e1c <free+0x8e>
    bp->s.size += p->s.ptr->s.size;
    2df8:	8b 45 f8             	mov    -0x8(%ebp),%eax
    2dfb:	8b 50 04             	mov    0x4(%eax),%edx
    2dfe:	8b 45 fc             	mov    -0x4(%ebp),%eax
    2e01:	8b 00                	mov    (%eax),%eax
    2e03:	8b 40 04             	mov    0x4(%eax),%eax
    2e06:	01 c2                	add    %eax,%edx
    2e08:	8b 45 f8             	mov    -0x8(%ebp),%eax
    2e0b:	89 50 04             	mov    %edx,0x4(%eax)
    bp->s.ptr = p->s.ptr->s.ptr;
    2e0e:	8b 45 fc             	mov    -0x4(%ebp),%eax
    2e11:	8b 00                	mov    (%eax),%eax
    2e13:	8b 10                	mov    (%eax),%edx
    2e15:	8b 45 f8             	mov    -0x8(%ebp),%eax
    2e18:	89 10                	mov    %edx,(%eax)
    2e1a:	eb 0a                	jmp    2e26 <free+0x98>
  } else
    bp->s.ptr = p->s.ptr;
    2e1c:	8b 45 fc             	mov    -0x4(%ebp),%eax
    2e1f:	8b 10                	mov    (%eax),%edx
    2e21:	8b 45 f8             	mov    -0x8(%ebp),%eax
    2e24:	89 10                	mov    %edx,(%eax)
  if(p + p->s.size == bp){
    2e26:	8b 45 fc             	mov    -0x4(%ebp),%eax
    2e29:	8b 40 04             	mov    0x4(%eax),%eax
    2e2c:	8d 14 c5 00 00 00 00 	lea    0x0(,%eax,8),%edx
    2e33:	8b 45 fc             	mov    -0x4(%ebp),%eax
    2e36:	01 d0                	add    %edx,%eax
    2e38:	3b 45 f8             	cmp    -0x8(%ebp),%eax
    2e3b:	75 20                	jne    2e5d <free+0xcf>
    p->s.size += bp->s.size;
    2e3d:	8b 45 fc             	mov    -0x4(%ebp),%eax
    2e40:	8b 50 04             	mov    0x4(%eax),%edx
    2e43:	8b 45 f8             	mov    -0x8(%ebp),%eax
    2e46:	8b 40 04             	mov    0x4(%eax),%eax
    2e49:	01 c2                	add    %eax,%edx
    2e4b:	8b 45 fc             	mov    -0x4(%ebp),%eax
    2e4e:	89 50 04             	mov    %edx,0x4(%eax)
    p->s.ptr = bp->s.ptr;
    2e51:	8b 45 f8             	mov    -0x8(%ebp),%eax
    2e54:	8b 10                	mov    (%eax),%edx
    2e56:	8b 45 fc             	mov    -0x4(%ebp),%eax
    2e59:	89 10                	mov    %edx,(%eax)
    2e5b:	eb 08                	jmp    2e65 <free+0xd7>
  } else
    p->s.ptr = bp;
    2e5d:	8b 45 fc             	mov    -0x4(%ebp),%eax
    2e60:	8b 55 f8             	mov    -0x8(%ebp),%edx
    2e63:	89 10                	mov    %edx,(%eax)
  freep = p;
    2e65:	8b 45 fc             	mov    -0x4(%ebp),%eax
    2e68:	a3 a8 d1 00 00       	mov    %eax,0xd1a8
}
    2e6d:	c9                   	leave  
    2e6e:	c3                   	ret    

00002e6f <morecore>:

static Header*
morecore(uint nu)
{
    2e6f:	55                   	push   %ebp
    2e70:	89 e5                	mov    %esp,%ebp
    2e72:	83 ec 28             	sub    $0x28,%esp
  char *p;
  Header *hp;

  if(nu < 4096)
    2e75:	81 7d 08 ff 0f 00 00 	cmpl   $0xfff,0x8(%ebp)
    2e7c:	77 07                	ja     2e85 <morecore+0x16>
    nu = 4096;
    2e7e:	c7 45 08 00 10 00 00 	movl   $0x1000,0x8(%ebp)
  p = sbrk(nu * sizeof(Header));
    2e85:	8b 45 08             	mov    0x8(%ebp),%eax
    2e88:	c1 e0 03             	shl    $0x3,%eax
    2e8b:	89 04 24             	mov    %eax,(%esp)
    2e8e:	e8 e8 fb ff ff       	call   2a7b <sbrk>
    2e93:	89 45 f4             	mov    %eax,-0xc(%ebp)
  if(p == (char*)-1)
    2e96:	83 7d f4 ff          	cmpl   $0xffffffff,-0xc(%ebp)
    2e9a:	75 07                	jne    2ea3 <morecore+0x34>
    return 0;
    2e9c:	b8 00 00 00 00       	mov    $0x0,%eax
    2ea1:	eb 22                	jmp    2ec5 <morecore+0x56>
  hp = (Header*)p;
    2ea3:	8b 45 f4             	mov    -0xc(%ebp),%eax
    2ea6:	89 45 f0             	mov    %eax,-0x10(%ebp)
  hp->s.size = nu;
    2ea9:	8b 45 f0             	mov    -0x10(%ebp),%eax
    2eac:	8b 55 08             	mov    0x8(%ebp),%edx
    2eaf:	89 50 04             	mov    %edx,0x4(%eax)
  free((void*)(hp + 1));
    2eb2:	8b 45 f0             	mov    -0x10(%ebp),%eax
    2eb5:	83 c0 08             	add    $0x8,%eax
    2eb8:	89 04 24             	mov    %eax,(%esp)
    2ebb:	e8 ce fe ff ff       	call   2d8e <free>
  return freep;
    2ec0:	a1 a8 d1 00 00       	mov    0xd1a8,%eax
}
    2ec5:	c9                   	leave  
    2ec6:	c3                   	ret    

00002ec7 <malloc>:

void*
malloc(uint nbytes)
{
    2ec7:	55                   	push   %ebp
    2ec8:	89 e5                	mov    %esp,%ebp
    2eca:	83 ec 28             	sub    $0x28,%esp
  Header *p, *prevp;
  uint nunits;

  nunits = (nbytes + sizeof(Header) - 1)/sizeof(Header) + 1;
    2ecd:	8b 45 08             	mov    0x8(%ebp),%eax
    2ed0:	83 c0 07             	add    $0x7,%eax
    2ed3:	c1 e8 03             	shr    $0x3,%eax
    2ed6:	83 c0 01             	add    $0x1,%eax
    2ed9:	89 45 ec             	mov    %eax,-0x14(%ebp)
  if((prevp = freep) == 0){
    2edc:	a1 a8 d1 00 00       	mov    0xd1a8,%eax
    2ee1:	89 45 f0             	mov    %eax,-0x10(%ebp)
    2ee4:	83 7d f0 00          	cmpl   $0x0,-0x10(%ebp)
    2ee8:	75 23                	jne    2f0d <malloc+0x46>
    base.s.ptr = freep = prevp = &base;
    2eea:	c7 45 f0 a0 d1 00 00 	movl   $0xd1a0,-0x10(%ebp)
    2ef1:	8b 45 f0             	mov    -0x10(%ebp),%eax
    2ef4:	a3 a8 d1 00 00       	mov    %eax,0xd1a8
    2ef9:	a1 a8 d1 00 00       	mov    0xd1a8,%eax
    2efe:	a3 a0 d1 00 00       	mov    %eax,0xd1a0
    base.s.size = 0;
    2f03:	c7 05 a4 d1 00 00 00 	movl   $0x0,0xd1a4
    2f0a:	00 00 00 
  }
  for(p = prevp->s.ptr; ; prevp = p, p = p->s.ptr){
    2f0d:	8b 45 f0             	mov    -0x10(%ebp),%eax
    2f10:	8b 00                	mov    (%eax),%eax
    2f12:	89 45 f4             	mov    %eax,-0xc(%ebp)
    if(p->s.size >= nunits){
    2f15:	8b 45 f4             	mov    -0xc(%ebp),%eax
    2f18:	8b 40 04             	mov    0x4(%eax),%eax
    2f1b:	3b 45 ec             	cmp    -0x14(%ebp),%eax
    2f1e:	72 4d                	jb     2f6d <malloc+0xa6>
      if(p->s.size == nunits)
    2f20:	8b 45 f4             	mov    -0xc(%ebp),%eax
    2f23:	8b 40 04             	mov    0x4(%eax),%eax
    2f26:	3b 45 ec             	cmp    -0x14(%ebp),%eax
    2f29:	75 0c                	jne    2f37 <malloc+0x70>
        prevp->s.ptr = p->s.ptr;
    2f2b:	8b 45 f4             	mov    -0xc(%ebp),%eax
    2f2e:	8b 10                	mov    (%eax),%edx
    2f30:	8b 45 f0             	mov    -0x10(%ebp),%eax
    2f33:	89 10                	mov    %edx,(%eax)
    2f35:	eb 26                	jmp    2f5d <malloc+0x96>
      else {
        p->s.size -= nunits;
    2f37:	8b 45 f4             	mov    -0xc(%ebp),%eax
    2f3a:	8b 40 04             	mov    0x4(%eax),%eax
    2f3d:	2b 45 ec             	sub    -0x14(%ebp),%eax
    2f40:	89 c2                	mov    %eax,%edx
    2f42:	8b 45 f4             	mov    -0xc(%ebp),%eax
    2f45:	89 50 04             	mov    %edx,0x4(%eax)
        p += p->s.size;
    2f48:	8b 45 f4             	mov    -0xc(%ebp),%eax
    2f4b:	8b 40 04             	mov    0x4(%eax),%eax
    2f4e:	c1 e0 03             	shl    $0x3,%eax
    2f51:	01 45 f4             	add    %eax,-0xc(%ebp)
        p->s.size = nunits;
    2f54:	8b 45 f4             	mov    -0xc(%ebp),%eax
    2f57:	8b 55 ec             	mov    -0x14(%ebp),%edx
    2f5a:	89 50 04             	mov    %edx,0x4(%eax)
      }
      freep = prevp;
    2f5d:	8b 45 f0             	mov    -0x10(%ebp),%eax
    2f60:	a3 a8 d1 00 00       	mov    %eax,0xd1a8
      return (void*)(p + 1);
    2f65:	8b 45 f4             	mov    -0xc(%ebp),%eax
    2f68:	83 c0 08             	add    $0x8,%eax
    2f6b:	eb 38                	jmp    2fa5 <malloc+0xde>
    }
    if(p == freep)
    2f6d:	a1 a8 d1 00 00       	mov    0xd1a8,%eax
    2f72:	39 45 f4             	cmp    %eax,-0xc(%ebp)
    2f75:	75 1b                	jne    2f92 <malloc+0xcb>
      if((p = morecore(nunits)) == 0)
    2f77:	8b 45 ec             	mov    -0x14(%ebp),%eax
    2f7a:	89 04 24             	mov    %eax,(%esp)
    2f7d:	e8 ed fe ff ff       	call   2e6f <morecore>
    2f82:	89 45 f4             	mov    %eax,-0xc(%ebp)
    2f85:	83 7d f4 00          	cmpl   $0x0,-0xc(%ebp)
    2f89:	75 07                	jne    2f92 <malloc+0xcb>
        return 0;
    2f8b:	b8 00 00 00 00       	mov    $0x0,%eax
    2f90:	eb 13                	jmp    2fa5 <malloc+0xde>
  nunits = (nbytes + sizeof(Header) - 1)/sizeof(Header) + 1;
  if((prevp = freep) == 0){
    base.s.ptr = freep = prevp = &base;
    base.s.size = 0;
  }
  for(p = prevp->s.ptr; ; prevp = p, p = p->s.ptr){
    2f92:	8b 45 f4             	mov    -0xc(%ebp),%eax
    2f95:	89 45 f0             	mov    %eax,-0x10(%ebp)
    2f98:	8b 45 f4             	mov    -0xc(%ebp),%eax
    2f9b:	8b 00                	mov    (%eax),%eax
    2f9d:	89 45 f4             	mov    %eax,-0xc(%ebp)
      return (void*)(p + 1);
    }
    if(p == freep)
      if((p = morecore(nunits)) == 0)
        return 0;
  }
    2fa0:	e9 70 ff ff ff       	jmp    2f15 <malloc+0x4e>
}
    2fa5:	c9                   	leave  
    2fa6:	c3                   	ret    

00002fa7 <abs>:
#include "math.h"
#define pi 3.1415926535898 
int abs(int x)
{
    2fa7:	55                   	push   %ebp
    2fa8:	89 e5                	mov    %esp,%ebp
	if (x < 0)
    2faa:	83 7d 08 00          	cmpl   $0x0,0x8(%ebp)
    2fae:	79 07                	jns    2fb7 <abs+0x10>
		return x * -1;
    2fb0:	8b 45 08             	mov    0x8(%ebp),%eax
    2fb3:	f7 d8                	neg    %eax
    2fb5:	eb 03                	jmp    2fba <abs+0x13>
	else
		return x;
    2fb7:	8b 45 08             	mov    0x8(%ebp),%eax
}
    2fba:	5d                   	pop    %ebp
    2fbb:	c3                   	ret    

00002fbc <sin>:
double sin(double x)  
{  
    2fbc:	55                   	push   %ebp
    2fbd:	89 e5                	mov    %esp,%ebp
    2fbf:	83 ec 3c             	sub    $0x3c,%esp
    2fc2:	8b 45 08             	mov    0x8(%ebp),%eax
    2fc5:	89 45 c8             	mov    %eax,-0x38(%ebp)
    2fc8:	8b 45 0c             	mov    0xc(%ebp),%eax
    2fcb:	89 45 cc             	mov    %eax,-0x34(%ebp)
	double Result=x,Fac=1.0,Xn=x,Precious=x;  
    2fce:	dd 45 c8             	fldl   -0x38(%ebp)
    2fd1:	dd 5d f8             	fstpl  -0x8(%ebp)
    2fd4:	d9 e8                	fld1   
    2fd6:	dd 5d f0             	fstpl  -0x10(%ebp)
    2fd9:	dd 45 c8             	fldl   -0x38(%ebp)
    2fdc:	dd 5d e8             	fstpl  -0x18(%ebp)
    2fdf:	dd 45 c8             	fldl   -0x38(%ebp)
    2fe2:	dd 5d e0             	fstpl  -0x20(%ebp)
	int n=1,sign=1;  
    2fe5:	c7 45 dc 01 00 00 00 	movl   $0x1,-0x24(%ebp)
    2fec:	c7 45 d8 01 00 00 00 	movl   $0x1,-0x28(%ebp)
	while(Precious>1e-6)  
    2ff3:	eb 50                	jmp    3045 <sin+0x89>
	{  
		n = n+1;  
    2ff5:	83 45 dc 01          	addl   $0x1,-0x24(%ebp)
		Fac=Fac*n*(n + 1);
    2ff9:	db 45 dc             	fildl  -0x24(%ebp)
    2ffc:	dc 4d f0             	fmull  -0x10(%ebp)
    2fff:	8b 45 dc             	mov    -0x24(%ebp),%eax
    3002:	83 c0 01             	add    $0x1,%eax
    3005:	89 45 c4             	mov    %eax,-0x3c(%ebp)
    3008:	db 45 c4             	fildl  -0x3c(%ebp)
    300b:	de c9                	fmulp  %st,%st(1)
    300d:	dd 5d f0             	fstpl  -0x10(%ebp)
		n = n + 1;  
    3010:	83 45 dc 01          	addl   $0x1,-0x24(%ebp)
		Xn*=x*x;  
    3014:	dd 45 c8             	fldl   -0x38(%ebp)
    3017:	dc 4d c8             	fmull  -0x38(%ebp)
    301a:	dd 45 e8             	fldl   -0x18(%ebp)
    301d:	de c9                	fmulp  %st,%st(1)
    301f:	dd 5d e8             	fstpl  -0x18(%ebp)
		sign=-sign;  
    3022:	f7 5d d8             	negl   -0x28(%ebp)
		Precious=Xn/Fac;  
    3025:	dd 45 e8             	fldl   -0x18(%ebp)
    3028:	dc 75 f0             	fdivl  -0x10(%ebp)
    302b:	dd 5d e0             	fstpl  -0x20(%ebp)
		Result=sign>0?Result+Precious:Result-Precious;  
    302e:	83 7d d8 00          	cmpl   $0x0,-0x28(%ebp)
    3032:	7e 08                	jle    303c <sin+0x80>
    3034:	dd 45 f8             	fldl   -0x8(%ebp)
    3037:	dc 45 e0             	faddl  -0x20(%ebp)
    303a:	eb 06                	jmp    3042 <sin+0x86>
    303c:	dd 45 f8             	fldl   -0x8(%ebp)
    303f:	dc 65 e0             	fsubl  -0x20(%ebp)
    3042:	dd 5d f8             	fstpl  -0x8(%ebp)
}
double sin(double x)  
{  
	double Result=x,Fac=1.0,Xn=x,Precious=x;  
	int n=1,sign=1;  
	while(Precious>1e-6)  
    3045:	dd 45 e0             	fldl   -0x20(%ebp)
    3048:	dd 05 20 96 00 00    	fldl   0x9620
    304e:	d9 c9                	fxch   %st(1)
    3050:	df e9                	fucomip %st(1),%st
    3052:	dd d8                	fstp   %st(0)
    3054:	77 9f                	ja     2ff5 <sin+0x39>
		Xn*=x*x;  
		sign=-sign;  
		Precious=Xn/Fac;  
		Result=sign>0?Result+Precious:Result-Precious;  
	}  
	return Result;  
    3056:	dd 45 f8             	fldl   -0x8(%ebp)
}  
    3059:	c9                   	leave  
    305a:	c3                   	ret    

0000305b <cos>:
double cos(double x)  
{  
    305b:	55                   	push   %ebp
    305c:	89 e5                	mov    %esp,%ebp
    305e:	83 ec 10             	sub    $0x10,%esp
    3061:	8b 45 08             	mov    0x8(%ebp),%eax
    3064:	89 45 f8             	mov    %eax,-0x8(%ebp)
    3067:	8b 45 0c             	mov    0xc(%ebp),%eax
    306a:	89 45 fc             	mov    %eax,-0x4(%ebp)
	return sin(pi/2-x);  
    306d:	dd 05 28 96 00 00    	fldl   0x9628
    3073:	dc 65 f8             	fsubl  -0x8(%ebp)
    3076:	dd 1c 24             	fstpl  (%esp)
    3079:	e8 3e ff ff ff       	call   2fbc <sin>
}  
    307e:	c9                   	leave  
    307f:	c3                   	ret    

00003080 <tan>:
double tan(double x)  
{  
    3080:	55                   	push   %ebp
    3081:	89 e5                	mov    %esp,%ebp
    3083:	83 ec 18             	sub    $0x18,%esp
    3086:	8b 45 08             	mov    0x8(%ebp),%eax
    3089:	89 45 f8             	mov    %eax,-0x8(%ebp)
    308c:	8b 45 0c             	mov    0xc(%ebp),%eax
    308f:	89 45 fc             	mov    %eax,-0x4(%ebp)
	return sin(x)/cos(x);  
    3092:	dd 45 f8             	fldl   -0x8(%ebp)
    3095:	dd 1c 24             	fstpl  (%esp)
    3098:	e8 1f ff ff ff       	call   2fbc <sin>
    309d:	dd 5d f0             	fstpl  -0x10(%ebp)
    30a0:	dd 45 f8             	fldl   -0x8(%ebp)
    30a3:	dd 1c 24             	fstpl  (%esp)
    30a6:	e8 b0 ff ff ff       	call   305b <cos>
    30ab:	dc 7d f0             	fdivrl -0x10(%ebp)
}  
    30ae:	c9                   	leave  
    30af:	c3                   	ret    

000030b0 <pow>:

double pow(double x, double y)
{
    30b0:	55                   	push   %ebp
    30b1:	89 e5                	mov    %esp,%ebp
    30b3:	83 ec 48             	sub    $0x48,%esp
    30b6:	8b 45 08             	mov    0x8(%ebp),%eax
    30b9:	89 45 e0             	mov    %eax,-0x20(%ebp)
    30bc:	8b 45 0c             	mov    0xc(%ebp),%eax
    30bf:	89 45 e4             	mov    %eax,-0x1c(%ebp)
    30c2:	8b 45 10             	mov    0x10(%ebp),%eax
    30c5:	89 45 d8             	mov    %eax,-0x28(%ebp)
    30c8:	8b 45 14             	mov    0x14(%ebp),%eax
    30cb:	89 45 dc             	mov    %eax,-0x24(%ebp)
	if(x==0 && y!=0) return 0;
    30ce:	dd 45 e0             	fldl   -0x20(%ebp)
    30d1:	d9 ee                	fldz   
    30d3:	df e9                	fucomip %st(1),%st
    30d5:	dd d8                	fstp   %st(0)
    30d7:	7a 28                	jp     3101 <pow+0x51>
    30d9:	dd 45 e0             	fldl   -0x20(%ebp)
    30dc:	d9 ee                	fldz   
    30de:	df e9                	fucomip %st(1),%st
    30e0:	dd d8                	fstp   %st(0)
    30e2:	75 1d                	jne    3101 <pow+0x51>
    30e4:	dd 45 d8             	fldl   -0x28(%ebp)
    30e7:	d9 ee                	fldz   
    30e9:	df e9                	fucomip %st(1),%st
    30eb:	dd d8                	fstp   %st(0)
    30ed:	7a 0b                	jp     30fa <pow+0x4a>
    30ef:	dd 45 d8             	fldl   -0x28(%ebp)
    30f2:	d9 ee                	fldz   
    30f4:	df e9                	fucomip %st(1),%st
    30f6:	dd d8                	fstp   %st(0)
    30f8:	74 07                	je     3101 <pow+0x51>
    30fa:	d9 ee                	fldz   
    30fc:	e9 30 01 00 00       	jmp    3231 <pow+0x181>
	else if(x==0 && y==0) return 1;
    3101:	dd 45 e0             	fldl   -0x20(%ebp)
    3104:	d9 ee                	fldz   
    3106:	df e9                	fucomip %st(1),%st
    3108:	dd d8                	fstp   %st(0)
    310a:	7a 28                	jp     3134 <pow+0x84>
    310c:	dd 45 e0             	fldl   -0x20(%ebp)
    310f:	d9 ee                	fldz   
    3111:	df e9                	fucomip %st(1),%st
    3113:	dd d8                	fstp   %st(0)
    3115:	75 1d                	jne    3134 <pow+0x84>
    3117:	dd 45 d8             	fldl   -0x28(%ebp)
    311a:	d9 ee                	fldz   
    311c:	df e9                	fucomip %st(1),%st
    311e:	dd d8                	fstp   %st(0)
    3120:	7a 12                	jp     3134 <pow+0x84>
    3122:	dd 45 d8             	fldl   -0x28(%ebp)
    3125:	d9 ee                	fldz   
    3127:	df e9                	fucomip %st(1),%st
    3129:	dd d8                	fstp   %st(0)
    312b:	75 07                	jne    3134 <pow+0x84>
    312d:	d9 e8                	fld1   
    312f:	e9 fd 00 00 00       	jmp    3231 <pow+0x181>
	else if(y<0) return 1/pow(x,-y);//把指数小于0的情况转为1/x^-y计算
    3134:	d9 ee                	fldz   
    3136:	dd 45 d8             	fldl   -0x28(%ebp)
    3139:	d9 c9                	fxch   %st(1)
    313b:	df e9                	fucomip %st(1),%st
    313d:	dd d8                	fstp   %st(0)
    313f:	76 1d                	jbe    315e <pow+0xae>
    3141:	dd 45 d8             	fldl   -0x28(%ebp)
    3144:	d9 e0                	fchs   
    3146:	dd 5c 24 08          	fstpl  0x8(%esp)
    314a:	dd 45 e0             	fldl   -0x20(%ebp)
    314d:	dd 1c 24             	fstpl  (%esp)
    3150:	e8 5b ff ff ff       	call   30b0 <pow>
    3155:	d9 e8                	fld1   
    3157:	de f1                	fdivp  %st,%st(1)
    3159:	e9 d3 00 00 00       	jmp    3231 <pow+0x181>
	else if(x<0 && y-(int)y!=0) return 0;//若x为负，且y不为整数数，则出错，返回0  
    315e:	d9 ee                	fldz   
    3160:	dd 45 e0             	fldl   -0x20(%ebp)
    3163:	d9 c9                	fxch   %st(1)
    3165:	df e9                	fucomip %st(1),%st
    3167:	dd d8                	fstp   %st(0)
    3169:	76 40                	jbe    31ab <pow+0xfb>
    316b:	dd 45 d8             	fldl   -0x28(%ebp)
    316e:	d9 7d d6             	fnstcw -0x2a(%ebp)
    3171:	0f b7 45 d6          	movzwl -0x2a(%ebp),%eax
    3175:	b4 0c                	mov    $0xc,%ah
    3177:	66 89 45 d4          	mov    %ax,-0x2c(%ebp)
    317b:	d9 6d d4             	fldcw  -0x2c(%ebp)
    317e:	db 5d d0             	fistpl -0x30(%ebp)
    3181:	d9 6d d6             	fldcw  -0x2a(%ebp)
    3184:	8b 45 d0             	mov    -0x30(%ebp),%eax
    3187:	89 45 d0             	mov    %eax,-0x30(%ebp)
    318a:	db 45 d0             	fildl  -0x30(%ebp)
    318d:	dd 45 d8             	fldl   -0x28(%ebp)
    3190:	de e1                	fsubp  %st,%st(1)
    3192:	d9 ee                	fldz   
    3194:	df e9                	fucomip %st(1),%st
    3196:	7a 0a                	jp     31a2 <pow+0xf2>
    3198:	d9 ee                	fldz   
    319a:	df e9                	fucomip %st(1),%st
    319c:	dd d8                	fstp   %st(0)
    319e:	74 0b                	je     31ab <pow+0xfb>
    31a0:	eb 02                	jmp    31a4 <pow+0xf4>
    31a2:	dd d8                	fstp   %st(0)
    31a4:	d9 ee                	fldz   
    31a6:	e9 86 00 00 00       	jmp    3231 <pow+0x181>
	else if(x<0 && y-(int)y==0)//若x为负，且y为整数数，则用循环计算 
    31ab:	d9 ee                	fldz   
    31ad:	dd 45 e0             	fldl   -0x20(%ebp)
    31b0:	d9 c9                	fxch   %st(1)
    31b2:	df e9                	fucomip %st(1),%st
    31b4:	dd d8                	fstp   %st(0)
    31b6:	76 63                	jbe    321b <pow+0x16b>
    31b8:	dd 45 d8             	fldl   -0x28(%ebp)
    31bb:	d9 7d d6             	fnstcw -0x2a(%ebp)
    31be:	0f b7 45 d6          	movzwl -0x2a(%ebp),%eax
    31c2:	b4 0c                	mov    $0xc,%ah
    31c4:	66 89 45 d4          	mov    %ax,-0x2c(%ebp)
    31c8:	d9 6d d4             	fldcw  -0x2c(%ebp)
    31cb:	db 5d d0             	fistpl -0x30(%ebp)
    31ce:	d9 6d d6             	fldcw  -0x2a(%ebp)
    31d1:	8b 45 d0             	mov    -0x30(%ebp),%eax
    31d4:	89 45 d0             	mov    %eax,-0x30(%ebp)
    31d7:	db 45 d0             	fildl  -0x30(%ebp)
    31da:	dd 45 d8             	fldl   -0x28(%ebp)
    31dd:	de e1                	fsubp  %st,%st(1)
    31df:	d9 ee                	fldz   
    31e1:	df e9                	fucomip %st(1),%st
    31e3:	7a 34                	jp     3219 <pow+0x169>
    31e5:	d9 ee                	fldz   
    31e7:	df e9                	fucomip %st(1),%st
    31e9:	dd d8                	fstp   %st(0)
    31eb:	75 2e                	jne    321b <pow+0x16b>
	{
		double powint=1;
    31ed:	d9 e8                	fld1   
    31ef:	dd 5d f0             	fstpl  -0x10(%ebp)
		int i;
		for(i=1;i<=y;i++) powint*=x;
    31f2:	c7 45 ec 01 00 00 00 	movl   $0x1,-0x14(%ebp)
    31f9:	eb 0d                	jmp    3208 <pow+0x158>
    31fb:	dd 45 f0             	fldl   -0x10(%ebp)
    31fe:	dc 4d e0             	fmull  -0x20(%ebp)
    3201:	dd 5d f0             	fstpl  -0x10(%ebp)
    3204:	83 45 ec 01          	addl   $0x1,-0x14(%ebp)
    3208:	db 45 ec             	fildl  -0x14(%ebp)
    320b:	dd 45 d8             	fldl   -0x28(%ebp)
    320e:	df e9                	fucomip %st(1),%st
    3210:	dd d8                	fstp   %st(0)
    3212:	73 e7                	jae    31fb <pow+0x14b>
		return powint;
    3214:	dd 45 f0             	fldl   -0x10(%ebp)
    3217:	eb 18                	jmp    3231 <pow+0x181>
    3219:	dd d8                	fstp   %st(0)
	}
	return exp(y*ln(x));
    321b:	dd 45 e0             	fldl   -0x20(%ebp)
    321e:	dd 1c 24             	fstpl  (%esp)
    3221:	e8 36 00 00 00       	call   325c <ln>
    3226:	dc 4d d8             	fmull  -0x28(%ebp)
    3229:	dd 1c 24             	fstpl  (%esp)
    322c:	e8 0e 02 00 00       	call   343f <exp>
}
    3231:	c9                   	leave  
    3232:	c3                   	ret    

00003233 <sqrt>:
// 求根
double sqrt(double x)
{
    3233:	55                   	push   %ebp
    3234:	89 e5                	mov    %esp,%ebp
    3236:	83 ec 28             	sub    $0x28,%esp
    3239:	8b 45 08             	mov    0x8(%ebp),%eax
    323c:	89 45 f0             	mov    %eax,-0x10(%ebp)
    323f:	8b 45 0c             	mov    0xc(%ebp),%eax
    3242:	89 45 f4             	mov    %eax,-0xc(%ebp)
	return pow(x,0.5);
    3245:	dd 05 30 96 00 00    	fldl   0x9630
    324b:	dd 5c 24 08          	fstpl  0x8(%esp)
    324f:	dd 45 f0             	fldl   -0x10(%ebp)
    3252:	dd 1c 24             	fstpl  (%esp)
    3255:	e8 56 fe ff ff       	call   30b0 <pow>
}
    325a:	c9                   	leave  
    325b:	c3                   	ret    

0000325c <ln>:

// ln(x) = 2 arctanh((x-1)/(x+1))
// 调用了Arctanh(double) 方法
double ln(double x)
{
    325c:	55                   	push   %ebp
    325d:	89 e5                	mov    %esp,%ebp
    325f:	81 ec 88 00 00 00    	sub    $0x88,%esp
    3265:	8b 45 08             	mov    0x8(%ebp),%eax
    3268:	89 45 90             	mov    %eax,-0x70(%ebp)
    326b:	8b 45 0c             	mov    0xc(%ebp),%eax
    326e:	89 45 94             	mov    %eax,-0x6c(%ebp)
	double y=x-1,ln_p1=0,ln_p2=0,ln_p3=0,ln_px=0,ln_tmp=1,dln_px=1,tmp;
    3271:	dd 45 90             	fldl   -0x70(%ebp)
    3274:	d9 e8                	fld1   
    3276:	de e9                	fsubrp %st,%st(1)
    3278:	dd 5d c0             	fstpl  -0x40(%ebp)
    327b:	d9 ee                	fldz   
    327d:	dd 5d f0             	fstpl  -0x10(%ebp)
    3280:	d9 ee                	fldz   
    3282:	dd 5d b8             	fstpl  -0x48(%ebp)
    3285:	d9 ee                	fldz   
    3287:	dd 5d b0             	fstpl  -0x50(%ebp)
    328a:	d9 ee                	fldz   
    328c:	dd 5d e8             	fstpl  -0x18(%ebp)
    328f:	d9 e8                	fld1   
    3291:	dd 5d e0             	fstpl  -0x20(%ebp)
    3294:	d9 e8                	fld1   
    3296:	dd 5d a8             	fstpl  -0x58(%ebp)
	int l;
	if(x==1) return 0;
    3299:	dd 45 90             	fldl   -0x70(%ebp)
    329c:	d9 e8                	fld1   
    329e:	df e9                	fucomip %st(1),%st
    32a0:	dd d8                	fstp   %st(0)
    32a2:	7a 12                	jp     32b6 <ln+0x5a>
    32a4:	dd 45 90             	fldl   -0x70(%ebp)
    32a7:	d9 e8                	fld1   
    32a9:	df e9                	fucomip %st(1),%st
    32ab:	dd d8                	fstp   %st(0)
    32ad:	75 07                	jne    32b6 <ln+0x5a>
    32af:	d9 ee                	fldz   
    32b1:	e9 87 01 00 00       	jmp    343d <ln+0x1e1>
	else if(x>2) return -ln(1/x);
    32b6:	dd 45 90             	fldl   -0x70(%ebp)
    32b9:	dd 05 38 96 00 00    	fldl   0x9638
    32bf:	d9 c9                	fxch   %st(1)
    32c1:	df e9                	fucomip %st(1),%st
    32c3:	dd d8                	fstp   %st(0)
    32c5:	76 14                	jbe    32db <ln+0x7f>
    32c7:	d9 e8                	fld1   
    32c9:	dc 75 90             	fdivl  -0x70(%ebp)
    32cc:	dd 1c 24             	fstpl  (%esp)
    32cf:	e8 88 ff ff ff       	call   325c <ln>
    32d4:	d9 e0                	fchs   
    32d6:	e9 62 01 00 00       	jmp    343d <ln+0x1e1>
	else if(x<.1)
    32db:	dd 05 40 96 00 00    	fldl   0x9640
    32e1:	dd 45 90             	fldl   -0x70(%ebp)
    32e4:	d9 c9                	fxch   %st(1)
    32e6:	df e9                	fucomip %st(1),%st
    32e8:	dd d8                	fstp   %st(0)
    32ea:	76 59                	jbe    3345 <ln+0xe9>
	{
		double n=-1;
    32ec:	d9 e8                	fld1   
    32ee:	d9 e0                	fchs   
    32f0:	dd 5d c8             	fstpl  -0x38(%ebp)
		double a;
		do
		{
			n=n-.6;
    32f3:	dd 45 c8             	fldl   -0x38(%ebp)
    32f6:	dd 05 48 96 00 00    	fldl   0x9648
    32fc:	de e9                	fsubrp %st,%st(1)
    32fe:	dd 5d c8             	fstpl  -0x38(%ebp)
			a=x/exp(n);
    3301:	dd 45 c8             	fldl   -0x38(%ebp)
    3304:	dd 1c 24             	fstpl  (%esp)
    3307:	e8 33 01 00 00       	call   343f <exp>
    330c:	dd 45 90             	fldl   -0x70(%ebp)
    330f:	de f1                	fdivp  %st,%st(1)
    3311:	dd 5d a0             	fstpl  -0x60(%ebp)
		}
		while(a>2 || a<1);
    3314:	dd 45 a0             	fldl   -0x60(%ebp)
    3317:	dd 05 38 96 00 00    	fldl   0x9638
    331d:	d9 c9                	fxch   %st(1)
    331f:	df e9                	fucomip %st(1),%st
    3321:	dd d8                	fstp   %st(0)
    3323:	77 ce                	ja     32f3 <ln+0x97>
    3325:	d9 e8                	fld1   
    3327:	dd 45 a0             	fldl   -0x60(%ebp)
    332a:	d9 c9                	fxch   %st(1)
    332c:	df e9                	fucomip %st(1),%st
    332e:	dd d8                	fstp   %st(0)
    3330:	77 c1                	ja     32f3 <ln+0x97>
		return ln(a)+n;
    3332:	dd 45 a0             	fldl   -0x60(%ebp)
    3335:	dd 1c 24             	fstpl  (%esp)
    3338:	e8 1f ff ff ff       	call   325c <ln>
    333d:	dc 45 c8             	faddl  -0x38(%ebp)
    3340:	e9 f8 00 00 00       	jmp    343d <ln+0x1e1>
	}
	for(l=1,tmp=1;(ln_px-ln_tmp)>1e-9 || (ln_px-ln_tmp)<-1e-9;l++)
    3345:	c7 45 d4 01 00 00 00 	movl   $0x1,-0x2c(%ebp)
    334c:	d9 e8                	fld1   
    334e:	dd 5d d8             	fstpl  -0x28(%ebp)
    3351:	e9 b6 00 00 00       	jmp    340c <ln+0x1b0>
	{
		ln_tmp=ln_px;
    3356:	dd 45 e8             	fldl   -0x18(%ebp)
    3359:	dd 5d e0             	fstpl  -0x20(%ebp)
		tmp*=y;
    335c:	dd 45 d8             	fldl   -0x28(%ebp)
    335f:	dc 4d c0             	fmull  -0x40(%ebp)
    3362:	dd 5d d8             	fstpl  -0x28(%ebp)
		if(l==1) tmp=tmp/l;
    3365:	83 7d d4 01          	cmpl   $0x1,-0x2c(%ebp)
    3369:	75 0d                	jne    3378 <ln+0x11c>
    336b:	db 45 d4             	fildl  -0x2c(%ebp)
    336e:	dd 45 d8             	fldl   -0x28(%ebp)
    3371:	de f1                	fdivp  %st,%st(1)
    3373:	dd 5d d8             	fstpl  -0x28(%ebp)
    3376:	eb 13                	jmp    338b <ln+0x12f>
		else tmp=tmp/-l;
    3378:	8b 45 d4             	mov    -0x2c(%ebp),%eax
    337b:	f7 d8                	neg    %eax
    337d:	89 45 8c             	mov    %eax,-0x74(%ebp)
    3380:	db 45 8c             	fildl  -0x74(%ebp)
    3383:	dd 45 d8             	fldl   -0x28(%ebp)
    3386:	de f1                	fdivp  %st,%st(1)
    3388:	dd 5d d8             	fstpl  -0x28(%ebp)
		ln_p1+=tmp;
    338b:	dd 45 f0             	fldl   -0x10(%ebp)
    338e:	dc 45 d8             	faddl  -0x28(%ebp)
    3391:	dd 5d f0             	fstpl  -0x10(%ebp)
		ln_p2=ln_p1+-1*tmp*y*l/(l+1);
    3394:	dd 45 d8             	fldl   -0x28(%ebp)
    3397:	d9 e0                	fchs   
    3399:	dc 4d c0             	fmull  -0x40(%ebp)
    339c:	db 45 d4             	fildl  -0x2c(%ebp)
    339f:	de c9                	fmulp  %st,%st(1)
    33a1:	8b 45 d4             	mov    -0x2c(%ebp),%eax
    33a4:	83 c0 01             	add    $0x1,%eax
    33a7:	89 45 8c             	mov    %eax,-0x74(%ebp)
    33aa:	db 45 8c             	fildl  -0x74(%ebp)
    33ad:	de f9                	fdivrp %st,%st(1)
    33af:	dc 45 f0             	faddl  -0x10(%ebp)
    33b2:	dd 5d b8             	fstpl  -0x48(%ebp)
		ln_p3=ln_p2+tmp*y*y*l/(l+2);
    33b5:	dd 45 d8             	fldl   -0x28(%ebp)
    33b8:	dc 4d c0             	fmull  -0x40(%ebp)
    33bb:	dc 4d c0             	fmull  -0x40(%ebp)
    33be:	db 45 d4             	fildl  -0x2c(%ebp)
    33c1:	de c9                	fmulp  %st,%st(1)
    33c3:	8b 45 d4             	mov    -0x2c(%ebp),%eax
    33c6:	83 c0 02             	add    $0x2,%eax
    33c9:	89 45 8c             	mov    %eax,-0x74(%ebp)
    33cc:	db 45 8c             	fildl  -0x74(%ebp)
    33cf:	de f9                	fdivrp %st,%st(1)
    33d1:	dc 45 b8             	faddl  -0x48(%ebp)
    33d4:	dd 5d b0             	fstpl  -0x50(%ebp)
		dln_px=ln_p3-ln_p2;
    33d7:	dd 45 b0             	fldl   -0x50(%ebp)
    33da:	dc 65 b8             	fsubl  -0x48(%ebp)
    33dd:	dd 5d a8             	fstpl  -0x58(%ebp)
		ln_px=ln_p3-dln_px*dln_px/(ln_p3-2*ln_p2+ln_p1);
    33e0:	dd 45 a8             	fldl   -0x58(%ebp)
    33e3:	dc 4d a8             	fmull  -0x58(%ebp)
    33e6:	dd 45 b8             	fldl   -0x48(%ebp)
    33e9:	d8 c0                	fadd   %st(0),%st
    33eb:	dd 45 b0             	fldl   -0x50(%ebp)
    33ee:	de e1                	fsubp  %st,%st(1)
    33f0:	dc 45 f0             	faddl  -0x10(%ebp)
    33f3:	de f9                	fdivrp %st,%st(1)
    33f5:	dd 45 b0             	fldl   -0x50(%ebp)
    33f8:	de e1                	fsubp  %st,%st(1)
    33fa:	dd 5d e8             	fstpl  -0x18(%ebp)
		tmp*=l;
    33fd:	db 45 d4             	fildl  -0x2c(%ebp)
    3400:	dd 45 d8             	fldl   -0x28(%ebp)
    3403:	de c9                	fmulp  %st,%st(1)
    3405:	dd 5d d8             	fstpl  -0x28(%ebp)
			a=x/exp(n);
		}
		while(a>2 || a<1);
		return ln(a)+n;
	}
	for(l=1,tmp=1;(ln_px-ln_tmp)>1e-9 || (ln_px-ln_tmp)<-1e-9;l++)
    3408:	83 45 d4 01          	addl   $0x1,-0x2c(%ebp)
    340c:	dd 45 e8             	fldl   -0x18(%ebp)
    340f:	dc 65 e0             	fsubl  -0x20(%ebp)
    3412:	dd 05 50 96 00 00    	fldl   0x9650
    3418:	d9 c9                	fxch   %st(1)
    341a:	df e9                	fucomip %st(1),%st
    341c:	dd d8                	fstp   %st(0)
    341e:	0f 87 32 ff ff ff    	ja     3356 <ln+0xfa>
    3424:	dd 45 e8             	fldl   -0x18(%ebp)
    3427:	dc 65 e0             	fsubl  -0x20(%ebp)
    342a:	dd 05 58 96 00 00    	fldl   0x9658
    3430:	df e9                	fucomip %st(1),%st
    3432:	dd d8                	fstp   %st(0)
    3434:	0f 87 1c ff ff ff    	ja     3356 <ln+0xfa>
		ln_p3=ln_p2+tmp*y*y*l/(l+2);
		dln_px=ln_p3-ln_p2;
		ln_px=ln_p3-dln_px*dln_px/(ln_p3-2*ln_p2+ln_p1);
		tmp*=l;
	}
	return ln_px;
    343a:	dd 45 e8             	fldl   -0x18(%ebp)
}
    343d:	c9                   	leave  
    343e:	c3                   	ret    

0000343f <exp>:

// 求e^x 用于Pow( double, double )调用
// e^x = 1+x+(x^2)/2!+(x^3)/3!+...
// 精度为7位
double exp( double x )
{
    343f:	55                   	push   %ebp
    3440:	89 e5                	mov    %esp,%ebp
    3442:	83 ec 78             	sub    $0x78,%esp
    3445:	8b 45 08             	mov    0x8(%ebp),%eax
    3448:	89 45 a0             	mov    %eax,-0x60(%ebp)
    344b:	8b 45 0c             	mov    0xc(%ebp),%eax
    344e:	89 45 a4             	mov    %eax,-0x5c(%ebp)
	double y=x,ex_p1=0,ex_p2=0,ex_p3=0,ex_px=0,ex_tmp=1,dex_px=1,tmp;
    3451:	dd 45 a0             	fldl   -0x60(%ebp)
    3454:	dd 5d c0             	fstpl  -0x40(%ebp)
    3457:	d9 ee                	fldz   
    3459:	dd 5d f0             	fstpl  -0x10(%ebp)
    345c:	d9 ee                	fldz   
    345e:	dd 5d b8             	fstpl  -0x48(%ebp)
    3461:	d9 ee                	fldz   
    3463:	dd 5d b0             	fstpl  -0x50(%ebp)
    3466:	d9 ee                	fldz   
    3468:	dd 5d e8             	fstpl  -0x18(%ebp)
    346b:	d9 e8                	fld1   
    346d:	dd 5d e0             	fstpl  -0x20(%ebp)
    3470:	d9 e8                	fld1   
    3472:	dd 5d d8             	fstpl  -0x28(%ebp)
	int l;
	if(x==0) return 1;
    3475:	dd 45 a0             	fldl   -0x60(%ebp)
    3478:	d9 ee                	fldz   
    347a:	df e9                	fucomip %st(1),%st
    347c:	dd d8                	fstp   %st(0)
